(lp0
(dp1
S'classe'
p2
S'o'
p3
sS'caracteristicas'
p4
(lp5
F3195.0
aF296.6518018245697
aI0
aI5372
aF2177.0
aF5026.593893846002
aF1831.5938938460022
aF12641.32635070168
aF9446.32635070168
aF3956.5
aF761.5
asa(dp6
g2
g3
sg4
(lp7
F147.5
aF46.041630148887634
aI0
aI224
aF76.5
aF189.99997562631324
aF42.499975626313244
aF377.64819385511834
aF230.14819385511834
aF152.0
aF4.5
asa(dp8
g2
g3
sg4
(lp9
F864.5
aF166.95331752300262
aI0
aI1820
aF955.5
aF1728.0
aF863.5
aF7107.442155523546
aF6242.942155523546
aF1159.0
aF294.5
asa(dp10
g2
S'n'
p11
sg4
(lp12
F2957.5
aF212.75230705738068
aI0
aI4087
aF1129.5
aF3880.801090031455
aF923.3010900314548
aF10000.412098287828
aF7042.9120982878285
aF3025.5
aF68.0
asa(dp13
g2
g3
sg4
(lp14
F27.5
aF21.41421353816986
aI0
aI40
aF12.5
aF28.0
aF0.5
aF108.31976646027127
aF80.81976646027127
aF27.5
aF0.0
asa(dp15
g2
S'l'
p16
sg4
(lp17
F2663.0
aF192.99494767189026
aI0
aI3534
aF871.0
aF3353.9995267806808
aF690.9995267806808
aF6416.824894472791
aF3753.824894472791
aF2696.5
aF33.5
asa(dp18
g2
g16
sg4
(lp19
F6338.5
aF594.1980460882187
aI0
aI13536
aF7197.5
aF12197.514266184415
aF5859.014266184415
aF34079.05924584599
aF27740.559245845987
aF9707.0
aF3368.5
asa(dp20
g2
g11
sg4
(lp21
F1867.5
aF250.83556735515594
aI1
aI3009
aF1141.5
aF2728.864117395133
aF861.3641173951328
aF5901.789755372904
aF4034.2897553729044
aF2152.5
aF285.0
asa(dp22
g2
g3
sg4
(lp23
F895.0
aF228.59292674064636
aI0
aI2211
aF1316.0
aF1972.5537482135987
aF1077.5537482135987
aF7540.721537989609
aF6645.721537989609
aF1679.5
aF784.5
asa(dp24
g2
g3
sg4
(lp25
F1.0
aF18.82842707633972
aI0
aI20
aF19.0
aF8.960002174918827
aF7.960002174918827
aF136.64956070830766
aF135.64956070830766
aF4.5
aF3.5
asa(dp26
g2
g11
sg4
(lp27
F1163.5
aF283.8061298131943
aI1
aI2596
aF1432.5
aF2400.6300160791143
aF1237.1300160791143
aF6647.4996579136805
aF5483.9996579136805
aF1780.0
aF616.5
asa(dp28
g2
g16
sg4
(lp29
F156.0
aF47.79898953437805
aI0
aI221
aF65.0
aF192.0
aF36.0
aF479.84273505985016
aF323.84273505985016
aF159.0
aF3.0
asa(dp30
g2
g3
sg4
(lp31
F57.0
aF34.97056245803833
aI0
aI130
aF73.0
aF83.32074598755071
aF26.32074598755071
aF299.9624084781754
aF242.9624084781754
aF67.5
aF10.5
asa(dp32
g2
g3
sg4
(lp33
F28.5
aF19.899494767189026
aI0
aI49
aF20.5
aF35.99999202427716
aF7.499992024277162
aF74.79128997400547
aF46.291289974005466
aF29.0
aF0.5
asa(dp34
g2
g11
sg4
(lp35
F4555.5
aF399.88939011096954
aI1
aI9630
aF5074.5
aF7402.522515149089
aF2847.0225151490886
aF19360.978858350845
aF14805.478858350845
aF6082.0
aF1526.5
asa(dp36
g2
g3
sg4
(lp37
F590.0
aF145.53910398483276
aI1
aI960
aF370.0
aF897.0794062421191
aF307.07940624211915
aF1897.5156991983722
aF1307.5156991983722
aF732.0
aF142.0
asa(dp38
g2
g3
sg4
(lp39
F9.5
aF13.071067690849304
aI0
aI25
aF15.5
aF14.399998908786301
aF4.899998908786301
aF33.329154197452766
aF23.829154197452766
aF11.0
aF1.5
asa(dp40
g2
g11
sg4
(lp41
F3337.5
aF236.69343197345734
aI0
aI5320
aF1982.5
aF4325.740828566253
aF988.2408285662532
aF11099.951740932422
aF7762.451740932422
aF3481.5
aF144.0
asa(dp42
g2
g11
sg4
(lp43
F634.5
aF159.78174459934235
aI0
aI1472
aF837.5
aF1379.7919894421648
aF745.2919894421648
aF3401.24073250646
aF2766.74073250646
aF1034.0
aF399.5
asa(dp44
g2
g3
sg4
(lp45
F45.5
aF28.727921843528748
aI0
aI84
aF38.5
aF66.0
aF20.5
aF216.63951554407302
aF171.13951554407302
aF48.5
aF3.0
asa(dp46
g2
g16
sg4
(lp47
F2106.5
aF185.23758828639984
aI0
aI3360
aF1253.5
aF2685.999876704882
aF579.4998767048819
aF5882.595996314655
aF3776.095996314655
aF2250.0
aF143.5
asa(dp48
g2
g3
sg4
(lp49
F101.0
aF71.79898953437805
aI0
aI272
aF171.0
aF198.12414835294476
aF97.12414835294476
aF1829.7706422591828
aF1728.7706422591828
aF127.5
aF26.5
asa(dp50
g2
g3
sg4
(lp51
F1.0
aF4.0
aI0
aI4
aF3.0
aF1.0
aF0.0
aF6.283185307179586
aF5.283185307179586
aF1.0
aF0.0
asa(dp52
g2
g16
sg4
(lp53
F16540.5
aF608.3401814699173
aI1
aI25530
aF8989.5
aF24663.54561985843
aF8123.045619858429
aF57186.96568118952
aF40646.46568118952
aF18559.0
aF2018.5
asa(dp54
g2
g16
sg4
(lp55
F2079.5
aF174.75230705738068
aI0
aI2950
aF870.5
aF2651.352752384453
aF571.8527523844532
aF5632.627507893362
aF3553.1275078933622
aF2117.5
aF38.0
asa(dp56
g2
g11
sg4
(lp57
F2314.5
aF262.3502861261368
aI1
aI3420
aF1105.5
aF3275.6003400323825
aF961.1003400323825
aF6607.5050303064145
aF4293.0050303064145
aF2684.0
aF369.5
asa(dp58
g2
g3
sg4
(lp59
F35.5
aF22.727921843528748
aI0
aI64
aF28.5
aF44.99999492395682
aF9.49999492395682
aF96.65455591911952
aF61.15455591911952
aF37.0
aF1.5
asa(dp60
g2
g3
sg4
(lp61
F23.0
aF18.485281229019165
aI0
aI42
aF19.0
aF30.0
aF7.0
aF67.36736980321001
aF44.36736980321001
aF24.0
aF1.0
asa(dp62
g2
g11
sg4
(lp63
F17234.5
aF1630.3687425851822
aI1
aI42224
aF24989.5
aF36803.400948883034
aF19568.900948883034
aF101495.6169523049
aF84261.1169523049
aF31342.0
aF14107.5
asa(dp64
g2
g11
sg4
(lp65
F1417.5
aF171.4385987520218
aI0
aI2322
aF904.5
aF2015.371969024971
aF597.8719690249709
aF5402.656373546477
aF3985.156373546477
aF1610.0
aF192.5
asa(dp66
g2
g16
sg4
(lp67
F1844.0
aF165.1959581375122
aI0
aI2475
aF631.0
aF2376.0
aF532.0
aF4926.915946931857
aF3082.9159469318574
aF1886.5
aF42.5
asa(dp68
g2
g3
sg4
(lp69
F48.0
aF33.79898953437805
aI0
aI130
aF82.0
aF74.39999864479432
aF26.399998644794323
aF321.62632345392245
aF273.62632345392245
aF56.5
aF8.5
asa(dp70
g2
g11
sg4
(lp71
F1679.5
aF231.0365778207779
aI1
aI3172
aF1492.5
aF2713.0860591321252
aF1033.5860591321252
aF6382.0527974731385
aF4702.5527974731385
aF2041.0
aF361.5
asa(dp72
g2
g3
sg4
(lp73
F58.0
aF41.79898953437805
aI0
aI144
aF86.0
aF103.13513423567929
aF45.13513423567929
aF496.6043714249587
aF438.6043714249587
aF74.0
aF16.0
asa(dp74
g2
g16
sg4
(lp75
F4700.5
aF306.3502861261368
aI1
aI6557
aF1856.5
aF6295.099870596139
aF1594.5998705961392
aF15553.050721364876
aF10852.550721364876
aF4976.0
aF275.5
asa(dp76
g2
g3
sg4
(lp77
F40.5
aF30.727921843528748
aI0
aI96
aF55.5
aF74.00000511213511
aF33.50000511213511
aF228.30470601629202
aF187.80470601629202
aF47.0
aF6.5
asa(dp78
g2
g11
sg4
(lp79
F1477.5
aF291.66399443149567
aI1
aI3420
aF1942.5
aF3071.6601692381955
aF1594.1601692381955
aF6742.855322797746
aF5265.355322797746
aF2297.0
aF819.5
asa(dp80
g2
g11
sg4
(lp81
F1964.5
aF264.83556735515594
aI0
aI3564
aF1599.5
aF3098.799618180841
aF1134.2996181808412
aF7307.416960456829
aF5342.916960456829
aF2513.0
aF548.5
asa(dp82
g2
g11
sg4
(lp83
F3613.5
aF390.71781718730927
aI1
aI7728
aF4114.5
aF6141.273167805397
aF2527.773167805397
aF16641.387457920446
aF13027.887457920446
aF4863.0
aF1249.5
asa(dp84
g2
g3
sg4
(lp85
F64.0
aF42.62741661071777
aI0
aI187
aF123.0
aF92.39999938660185
aF28.39999938660185
aF593.2589168389945
aF529.2589168389945
aF72.5
aF8.5
asa(dp86
g2
g3
sg4
(lp87
F2042.5
aF173.4385987520218
aI0
aI2805
aF762.5
aF2667.10731392703
aF624.6073139270302
aF5767.610646075106
aF3725.110646075106
aF2085.5
aF43.0
asa(dp88
g2
g3
sg4
(lp89
F74.5
aF32.38477599620819
aI0
aI121
aF46.5
aF89.99999590790685
aF15.49999590790685
aF192.02487863456633
aF117.52487863456633
aF76.0
aF1.5
asa(dp90
g2
g3
sg4
(lp91
F98.5
aF59.35533845424652
aI0
aI374
aF275.5
aF169.61124070112783
aF71.11124070112783
aF1109.8610120106507
aF1011.3610120106507
aF133.0
aF34.5
asa(dp92
g2
g16
sg4
(lp93
F4917.5
aF278.29141104221344
aI0
aI7743
aF2825.5
aF6227.688898648135
aF1310.1888986481354
aF12968.054565694261
aF8050.554565694261
aF5062.5
aF145.0
asa(dp94
g2
g11
sg4
(lp95
F547.5
aF176.2670258283615
aI0
aI2150
aF1602.5
aF1626.3881873312057
aF1078.8881873312057
aF4807.730947179729
aF4260.230947179729
aF1247.0
aF699.5
asa(dp96
g2
g3
sg4
(lp97
F2771.0
aF210.99494767189026
aI0
aI3894
aF1123.0
aF3620.461803059152
aF849.4618030591519
aF7907.342011952729
aF5136.342011952729
aF2911.0
aF140.0
asa(dp98
g2
g3
sg4
(lp99
F51.5
aF28.727921843528748
aI0
aI88
aF36.5
aF67.19999698554284
aF15.699996985542839
aF175.04632205398443
aF123.54632205398443
aF55.0
aF3.5
asa(dp100
g2
g3
sg4
(lp101
F2442.5
aF212.89444243907928
aI0
aI3619
aF1176.5
aF3494.5862822188064
aF1052.0862822188064
aF9792.107021363498
aF7349.607021363498
aF2649.0
aF206.5
asa(dp102
g2
g3
sg4
(lp103
I0
aF0.0
aI0
aI1
aI1
aF0.0
aF0.0
aF6.283185307179586
aF6.283185307179586
aF0.0
aF0.0
asa(dp104
g2
g3
sg4
(lp105
F574.0
aF121.0538227558136
aI0
aI1260
aF686.0
aF972.1697340563696
aF398.16973405636963
aF2922.967069553247
aF2348.967069553247
aF771.0
aF197.0
asa(dp106
g2
g11
sg4
(lp107
F928.5
aF162.61017167568207
aI0
aI1755
aF826.5
aF1396.0975221707486
aF467.59752217074856
aF3530.071755905689
aF2601.571755905689
aF1143.0
aF214.5
asa(dp108
g2
g11
sg4
(lp109
F2017.5
aF203.722869515419
aI1
aI3245
aF1227.5
aF2667.5999332385254
aF650.0999332385254
aF6340.871734465208
aF4323.371734465208
aF2209.5
aF192.0
asa(dp110
g2
g11
sg4
(lp111
F1591.5
aF214.89444243907928
aI1
aI2444
aF852.5
aF2248.2625857092207
aF656.7625857092207
aF5207.6807314976295
aF3616.1807314976295
aF1854.0
aF262.5
asa(dp112
g2
g3
sg4
(lp113
F181.5
aF51.69848430156708
aI0
aI288
aF106.5
aF230.9999912502699
aF49.499991250269886
aF496.6043714249587
aF315.1043714249587
aF187.0
aF5.5
asa(dp114
g2
g3
sg4
(lp115
F252.5
aF72.18376553058624
aI0
aI513
aF260.5
aF367.3287486132067
aF114.8287486132067
aF1368.1617892942022
aF1115.6617892942022
aF282.5
aF30.0
asa(dp116
g2
g3
sg4
(lp117
F3.0
aF8.0
aI0
aI8
aF5.0
aF3.0
aF0.0
aF16.66457956221105
aF13.664579562211049
aF3.0
aF0.0
asa(dp118
g2
g3
sg4
(lp119
F67.0
aF43.455843687057495
aI0
aI208
aF141.0
aF126.93631616904895
aF59.93631616904895
aF509.93607759011843
aF442.93607759011843
aF82.0
aF15.0
asa(dp120
g2
g16
sg4
(lp121
F2417.0
aF185.82337474822998
aI0
aI3364
aF947.0
aF3037.50003890862
aF620.5000389086199
aF5677.716885275144
aF3260.716885275144
aF2453.5
aF36.5
asa(dp122
g2
g16
sg4
(lp123
F2273.0
aF217.62236428260803
aI0
aI3332
aF1059.0
aF3216.0
aF943.0
aF7637.072908315614
aF5364.072908315614
aF2505.5
aF232.5
asa(dp124
g2
g11
sg4
(lp125
F1895.0
aF290.73506212234497
aI1
aI3422
aF1527.0
aF3232.00015732451
aF1337.00015732451
aF6096.581535546482
aF4201.581535546482
aF2595.0
aF700.0
asa(dp126
g2
g11
sg4
(lp127
F1296.0
aF164.5096664428711
aI0
aI2350
aF1054.0
aF1788.1183114871092
aF492.11831148710917
aF4016.1632514401745
aF2720.1632514401745
aF1514.0
aF218.0
asa(dp128
g2
g3
sg4
(lp129
F458.0
aF80.42640614509583
aI0
aI650
aF192.0
aF575.9998723884346
aF117.9998723884346
aF1116.919749545842
aF658.919749545842
aF468.5
aF10.5
asa(dp130
g2
g11
sg4
(lp131
F1908.5
aF213.722869515419
aI0
aI2880
aF971.5
aF2719.2946355503227
aF810.7946355503227
aF7394.07263423939
aF5485.57263423939
aF2264.5
aF356.0
asa(dp132
g2
g11
sg4
(lp133
F1277.0
aF155.39696860313416
aI0
aI2064
aF787.0
aF1925.568719718096
aF648.568719718096
aF4477.806674757749
aF3200.8066747577486
aF1450.0
aF173.0
asa(dp134
g2
g3
sg4
(lp135
F55.0
aF31.313708305358887
aI0
aI96
aF41.0
aF77.0
aF22.0
aF216.63951554407302
aF161.63951554407302
aF60.0
aF5.0
asa(dp136
g2
g3
sg4
(lp137
F1305.5
aF339.4629839658737
aI0
aI5985
aF4679.5
aF3930.2780895726755
aF2624.7780895726755
aF18451.02132110097
aF17145.52132110097
aF3290.0
aF1984.5
asa(dp138
g2
g3
sg4
(lp139
F12.0
aF13.656854152679443
aI0
aI25
aF13.0
aF16.0
aF4.0
aF33.329154197452766
aF21.329154197452766
aF13.0
aF1.0
asa(dp140
g2
g11
sg4
(lp141
F1873.0
aF264.7939372062683
aI1
aI2912
aF1039.0
aF2805.0
aF932.0
aF6088.429799081481
aF4215.429799081481
aF2366.5
aF493.5
asa(dp142
g2
g11
sg4
(lp143
F1850.0
aF236.45079135894775
aI1
aI3135
aF1285.0
aF2633.353045299882
aF783.3530452998821
aF5719.533883809622
aF3869.5338838096222
aF2139.0
aF289.0
asa(dp144
g2
g3
sg4
(lp145
F17.0
aF15.656854152679443
aI0
aI30
aF13.0
aF20.0
aF3.0
aF48.32727338013026
aF31.327273380130258
aF17.5
aF0.5
asa(dp146
g2
g11
sg4
(lp147
F2458.0
aF251.9655101299286
aI0
aI3658
aF1200.0
aF3454.3995944178314
aF996.3995944178314
aF7507.392026882147
aF5049.392026882147
aF2782.0
aF324.0
asa(dp148
g2
g3
sg4
(lp149
F546.0
aF109.74011445045471
aI0
aI928
aF382.0
aF826.7999711370794
aF280.7999711370794
aF2041.410746887204
aF1495.410746887204
aF637.0
aF91.0
asa(dp150
g2
g11
sg4
(lp151
F1120.5
aF274.83556735515594
aI0
aI2925
aF1804.5
aF2757.292289481993
aF1636.792289481993
aF7108.907780796448
aF5988.407780796448
aF2171.5
aF1051.0
asa(dp152
g2
g16
sg4
(lp153
F11497.5
aF1329.4082847833633
aI1
aI34604
aF23106.5
aF26832.091282832902
aF15334.591282832902
aF73917.3991734029
aF62419.8991734029
aF22212.5
aF10715.0
asa(dp154
g2
g3
sg4
(lp155
F84.5
aF41.21320307254791
aI0
aI180
aF95.5
aF120.5360965473501
aF36.0360965473501
aF448.2772122745137
aF363.7772122745137
aF94.5
aF10.0
asa(dp156
g2
g3
sg4
(lp157
F201.5
aF58.870057225227356
aI0
aI322
aF120.5
aF285.36006735531555
aF83.86006735531555
aF813.2313511125735
aF611.7313511125735
aF217.5
aF16.0
asa(dp158
g2
g11
sg4
(lp159
F1114.0
aF185.82337474822998
aI0
aI2160
aF1046.0
aF1811.9770607691607
aF697.9770607691607
aF3815.3354084081225
aF2701.3354084081225
aF1468.5
aF354.5
asa(dp160
g2
g11
sg4
(lp161
F1893.0
aF173.33809351921082
aI0
aI2860
aF967.0
aF2559.1380680692964
aF666.1380680692964
aF5736.967910334577
aF3843.967910334577
aF1984.5
aF91.5
asa(dp162
g2
g3
sg4
(lp163
F116.5
aF46.041630148887634
aI0
aI216
aF99.5
aF180.8988930617561
aF64.3988930617561
aF488.27214998758825
aF371.77214998758825
aF130.5
aF14.0
asa(dp164
g2
g11
sg4
(lp165
F2398.5
aF332.29141104221344
aI1
aI4489
aF2090.5
aF4063.3271892864723
aF1664.8271892864723
aF8925.167497579878
aF6526.667497579878
aF3264.0
aF865.5
asa(dp166
g2
g11
sg4
(lp167
F1533.5
aF232.35028612613678
aI0
aI2652
aF1118.5
aF2550.0
aF1016.5
aF5504.850882167515
aF3971.350882167515
aF2026.0
aF492.5
asa(dp168
g2
g3
sg4
(lp169
F36.0
aF29.656854152679443
aI0
aI72
aF36.0
aF52.48001104330251
aF16.48001104330251
aF243.30285055241166
aF207.30285055241166
aF42.0
aF6.0
asa(dp170
g2
g11
sg4
(lp171
F1387.0
aF154.02438521385193
aI0
aI2255
aF868.0
aF1883.1999553283677
aF496.19995532836765
aF4901.052582366681
aF3514.0525823666812
aF1490.5
aF103.5
asa(dp172
g2
g16
sg4
(lp173
F5890.0
aF300.73506212234497
aI0
aI8352
aF2462.0
aF7515.13830302842
aF1625.1383030284196
aF15954.105298126227
aF10064.105298126227
aF6085.0
aF195.0
asa(dp174
g2
g16
sg4
(lp175
F3405.5
aF258.0071402788162
aI0
aI5610
aF2204.5
aF5098.938450893707
aF1693.4384508937073
aF12511.382152857741
aF9105.882152857741
aF3808.5
aF403.0
asa(dp176
g2
g3
sg4
(lp177
F199.0
aF66.62741661071777
aI0
aI308
aF109.0
aF270.0
aF71.0
aF1229.8458787086252
aF1030.8458787086252
aF222.0
aF23.0
asa(dp178
g2
g3
sg4
(lp179
F199.5
aF126.40916121006012
aI0
aI1764
aF1564.5
aF573.9998950476001
aF374.49989504760015
aF5602.631521895413
aF5403.131521895413
aF315.0
aF115.5
asa(dp180
g2
g3
sg4
(lp181
F700.0
aF117.88224983215332
aI0
aI1334
aF634.0
aF891.1697994109709
aF191.16979941097088
aF3856.1835367232334
aF3156.1835367232334
aF725.5
aF25.5
asa(dp182
g2
g3
sg4
(lp183
I0
aF0.0
aI0
aI1
aI1
aF0.0
aF0.0
aF6.283185307179586
aF6.283185307179586
aF0.0
aF0.0
asa(dp184
g2
g3
sg4
(lp185
F108.0
aF46.28427076339722
aI0
aI234
aF126.0
aF147.48111632452128
aF39.48111632452128
aF588.2595512119892
aF480.2595512119892
aF118.5
aF10.5
asa(dp186
g2
g3
sg4
(lp187
F133.5
aF44.041630148887634
aI0
aI210
aF76.5
aF169.99999451832264
aF36.49999451832264
aF347.1204273043073
aF213.62042730430733
aF138.5
aF5.0
asa(dp188
g2
g11
sg4
(lp189
F1955.0
aF169.53910398483276
aI0
aI2576
aF621.0
aF2473.4116753561248
aF518.4116753561248
aF5489.804485837536
aF3534.804485837536
aF2013.0
aF58.0
asa(dp190
g2
g11
sg4
(lp191
F847.5
aF159.4385987520218
aI0
aI1800
aF952.5
aF1536.0829850694863
aF688.5829850694863
aF3743.673033923905
aF2896.173033923905
aF1219.0
aF371.5
asa(dp192
g2
g11
sg4
(lp193
F1361.5
aF280.97770273685455
aI1
aI2773
aF1411.5
aF2553.661851119192
aF1192.1618511191919
aF6082.571263810291
aF4721.071263810291
aF1975.0
aF613.5
asa(dp194
g2
g3
sg4
(lp195
I0
aF0.0
aI0
aI1
aI1
aF0.0
aF0.0
aF6.283185307179586
aF6.283185307179586
aF0.0
aF0.0
asa(dp196
g2
g11
sg4
(lp197
F2253.0
aF189.13708305358887
aI0
aI3584
aF1331.0
aF2883.6369105375343
aF630.6369105375343
aF7415.73772466411
aF5162.73772466411
aF2349.0
aF96.0
asa(dp198
g2
g3
sg4
(lp199
F85.0
aF39.79898953437805
aI0
aI165
aF80.0
aF118.75861309611537
aF33.75861309611537
aF386.61822367647807
aF301.61822367647807
aF93.5
aF8.5
asa(dp200
g2
g3
sg4
(lp201
F63.5
aF42.041630148887634
aI0
aI196
aF132.5
aF95.99998592446718
aF32.49998592446718
aF483.2727680054788
aF419.7727680054788
aF85.0
aF21.5
asa(dp202
g2
g11
sg4
(lp203
F1816.5
aF272.0071402788162
aI0
aI3591
aF1774.5
aF2837.257270828355
aF1020.7572708283551
aF7212.429221258482
aF5395.929221258482
aF2401.5
aF585.0
asa(dp204
g2
g3
sg4
(lp205
F13581.0
aF720.2051863670349
aI0
aI34547
aF20966.0
aF22228.750552609563
aF8647.750552609563
aF73886.44517876295
aF60305.44517876295
aF17272.0
aF3691.0
asa(dp206
g2
g3
sg4
(lp207
F17.0
aF26.97056245803833
aI0
aI88
aF71.0
aF27.076921976361064
aF10.076921976361064
aF248.30220437232518
aF231.30220437232518
aF22.5
aF5.5
asa(dp208
g2
g11
sg4
(lp209
F1011.0
aF272.45079135894775
aI0
aI2750
aF1739.0
aF2574.2763324038096
aF1563.2763324038096
aF5271.174300095596
aF4260.174300095596
aF2051.5
aF1040.5
asa(dp210
g2
g3
sg4
(lp211
F71.5
aF32.38477599620819
aI0
aI121
aF49.5
aF90.99999671661499
aF19.499996716614987
aF193.30909352052103
aF121.80909352052103
aF74.5
aF3.0
asa(dp212
g2
g3
sg4
(lp213
F174.5
aF50.870057225227356
aI0
aI270
aF95.5
aF227.99996050146365
aF53.49996050146365
aF563.2628428634092
aF388.7628428634092
aF179.5
aF5.0
asa(dp214
g2
g3
sg4
(lp215
F58.5
aF36.38477599620819
aI0
aI140
aF81.5
aF79.17243624280718
aF20.67243624280718
aF363.2877927519139
aF304.7877927519139
aF65.5
aF7.0
asa(dp216
g2
g16
sg4
(lp217
F1979.0
aF167.1959581375122
aI0
aI2538
aF559.0
aF2438.0
aF459.0
aF5081.873669924515
aF3102.8736699245146
aF2007.5
aF28.5
asa(dp218
g2
g16
sg4
(lp219
F3203.5
aF226.69343197345734
aI0
aI4970
aF1766.5
aF4105.277262531978
aF901.7772625319776
aF10807.41200443049
aF7603.912004430489
aF3314.0
aF110.5
asa(dp220
g2
g3
sg4
(lp221
F11.5
aF13.071067690849304
aI0
aI25
aF13.5
aF14.999999317984475
aF3.499999317984475
aF33.329154197452766
aF21.829154197452766
aF12.0
aF0.5
asa(dp222
g2
g11
sg4
(lp223
F697.5
aF137.78174459934235
aI0
aI1645
aF947.5
aF1042.5438347333402
aF345.0438347333402
aF4192.807617056591
aF3495.307617056591
aF862.5
aF165.0
asa(dp224
g2
g16
sg4
(lp225
F19309.0
aF774.2396762371063
aI0
aI38316
aF19007.0
aF31177.24083696725
aF11868.240836967248
aF99764.15993712237
aF80455.15993712237
aF24376.5
aF5067.5
asa(dp226
g2
g11
sg4
(lp227
F2041.0
aF207.27921843528748
aI1
aI3538
aF1497.0
aF2714.1084872641222
aF673.1084872641222
aF6549.673080148965
aF4508.673080148965
aF2225.5
aF184.5
asa(dp228
g2
g11
sg4
(lp229
F1357.0
aF193.53910398483276
aI0
aI2014
aF657.0
aF1924.0
aF567.0
aF5549.30511709912
aF4192.30511709912
aF1585.0
aF228.0
asa(dp230
g2
g3
sg4
(lp231
F40.5
aF33.21320307254791
aI0
aI132
aF91.5
aF59.9999972719379
aF19.4999972719379
aF333.2915592119978
aF292.7915592119978
aF47.5
aF7.0
asa(dp232
g2
g3
sg4
(lp233
F2584.5
aF201.92387998104095
aI0
aI3498
aF913.5
aF3343.113853860559
aF758.6138538605592
aF7386.220805090412
aF4801.720805090412
aF2710.5
aF126.0
asa(dp234
g2
g3
sg4
(lp235
F42.0
aF24.14213538169861
aI0
aI72
aF30.0
aF49.99999997444684
aF7.999999974446837
aF113.31911707768425
aF71.31911707768425
aF42.5
aF0.5
asa(dp236
g2
g3
sg4
(lp237
F55.0
aF30.97056245803833
aI0
aI108
aF53.0
aF76.7241592357459
aF21.7241592357459
aF228.30470601629202
aF173.30470601629202
aF60.0
aF5.0
asa(dp238
g2
g3
sg4
(lp239
F22.0
aF19.656854152679443
aI0
aI42
aF20.0
aF29.64705793474468
aF7.64705793474468
aF86.65580144928751
aF64.65580144928751
aF24.5
aF2.5
asa(dp240
g2
g16
sg4
(lp241
F6304.0
aF309.22034335136414
aI0
aI8836
aF2532.0
aF8174.862450568471
aF1870.862450568471
aF15267.929063306567
aF8963.929063306567
aF6522.0
aF218.0
asa(dp242
g2
g11
sg4
(lp243
F1727.0
aF261.76449966430664
aI1
aI3016
aF1289.0
aF2851.9996903892024
aF1124.9996903892024
aF5742.304009464227
aF4015.3040094642274
aF2244.0
aF517.0
asa(dp244
g2
g11
sg4
(lp245
F2262.0
aF189.13708305358887
aI0
aI3584
aF1322.0
aF2886.379516360612
aF624.3795163606119
aF7415.73772466411
aF5153.73772466411
aF2358.0
aF96.0
asa(dp246
g2
g11
sg4
(lp247
F1357.5
aF146.1248904466629
aI0
aI1968
aF610.5
aF1858.386706717196
aF500.8867067171959
aF3922.7423605171534
aF2565.2423605171534
aF1426.5
aF69.0
asa(dp248
g2
g11
sg4
(lp249
F2611.0
aF227.48022890090942
aI0
aI4340
aF1729.0
aF3555.322679131292
aF944.3226791312918
aF9295.50180598631
aF6684.5018059863105
aF2930.0
aF319.0
asa(dp250
g2
g3
sg4
(lp251
F4284.5
aF479.0020879507065
aI1
aI9156
aF4871.5
aF8439.199115189607
aF4154.699115189607
aF23613.709032964427
aF19329.209032964427
aF6128.0
aF1843.5
asa(dp252
g2
g3
sg4
(lp253
F217.5
aF59.69848430156708
aI0
aI345
aF127.5
aF292.9230911740524
aF75.42309117405239
aF808.2319283178326
aF590.7319283178326
aF231.0
aF13.5
asa(dp254
g2
g3
sg4
(lp255
F45.0
aF26.14213538169861
aI0
aI81
aF36.0
aF59.9999972719379
aF14.9999972719379
aF133.31661678981106
aF88.31661678981106
aF47.5
aF2.5
asa(dp256
g2
g3
sg4
(lp257
F122.0
aF75.11269783973694
aI0
aI529
aF407.0
aF397.1086052500832
aF275.1086052500832
aF1541.4735018228232
aF1419.4735018228232
aF221.5
aF99.5
asa(dp258
g2
g16
sg4
(lp259
F4146.5
aF372.0904005765915
aI0
aI7138
aF2991.5
aF6800.363410840393
aF2653.863410840393
aF14819.615368992749
aF10673.115368992749
aF5058.0
aF911.5
asa(dp260
g2
g11
sg4
(lp261
F2020.0
aF260.59292674064636
aI0
aI3780
aF1760.0
aF3232.615757111038
aF1212.615757111038
aF6814.68587970922
aF4794.68587970922
aF2601.5
aF581.5
asa(dp262
g2
g3
sg4
(lp263
F56.0
aF34.14213538169861
aI0
aI120
aF64.0
aF99.0
aF43.0
aF261.63390876367527
aF205.63390876367527
aF70.0
aF14.0
asa(dp264
g2
g11
sg4
(lp265
F1758.0
aF246.45079135894775
aI1
aI3036
aF1278.0
aF2686.8604256320978
aF928.8604256320978
aF8080.653168949089
aF6322.653168949089
aF2071.0
aF313.0
asa(dp266
g2
g11
sg4
(lp267
F3040.0
aF239.76449966430664
aI0
aI5472
aF2432.0
aF4276.41933350492
aF1236.4193335049204
aF11687.47654764056
aF8647.47654764056
aF3428.0
aF388.0
asa(dp268
g2
g16
sg4
(lp269
F2401.5
aF187.4385987520218
aI0
aI3150
aF748.5
aF3038.0
aF636.5
aF7125.772524408484
aF4724.272524408484
aF2443.0
aF41.5
asa(dp270
g2
g11
sg4
(lp271
F1515.5
aF171.78174459934235
aI0
aI2220
aF704.5
aF2124.0
aF608.5
aF6002.580549973791
aF4487.080549973791
aF1701.5
aF186.0
asa(dp272
g2
g11
sg4
(lp273
F2728.0
aF248.93607258796692
aI1
aI4331
aF1603.0
aF3770.565970829164
aF1042.5659708291641
aF8972.20917291066
aF6244.20917291066
aF3069.5
aF341.5
asa(dp274
g2
g3
sg4
(lp275
I0
aF0.0
aI0
aI1
aI1
aF0.0
aF0.0
aF6.283185307179586
aF6.283185307179586
aF0.0
aF0.0
asa(dp276
g2
g3
sg4
(lp277
F460.5
aF148.1248904466629
aI0
aI1216
aF755.5
aF1120.452921225704
aF659.9529212257039
aF2667.2619343079878
aF2206.7619343079878
aF887.5
aF427.0
asa(dp278
g2
g11
sg4
(lp279
F1757.0
aF269.4213538169861
aI1
aI3468
aF1711.0
aF3009.274581613834
aF1252.274581613834
aF7993.997850003527
aF6236.997850003527
aF2328.0
aF571.0
asa(dp280
g2
g3
sg4
(lp281
F12651.5
aF1234.9230035543442
aI1
aI36784
aF24132.5
aF28171.97335304087
aF15520.47335304087
aF78237.40193744883
aF65585.90193744883
aF23368.5
aF10717.0
asa(dp282
g2
g3
sg4
(lp283
I0
aF0.0
aI0
aI1
aI1
aF0.0
aF0.0
aF6.283185307179586
aF6.283185307179586
aF0.0
aF0.0
asa(dp284
g2
g3
sg4
(lp285
F10.0
aF12.485281229019165
aI0
aI25
aF15.0
aF11.999998240558398
aF1.9999982405583978
aF33.329154197452766
aF23.329154197452766
aF10.0
aF0.0
asa(dp286
g2
g3
sg4
(lp287
F105.5
aF52.041630148887634
aI0
aI200
aF94.5
aF159.22181876866307
aF53.72181876866307
aF661.5837156745782
aF556.0837156745782
aF139.5
aF34.0
asa(dp288
g2
g3
sg4
(lp289
F12.0
aF13.656854152679443
aI0
aI25
aF13.0
aF16.0
aF4.0
aF37.03058920639524
aF25.03058920639524
aF12.5
aF0.5
asa(dp290
g2
g3
sg4
(lp291
F24.5
aF28.727921843528748
aI0
aI88
aF63.5
aF42.45282539823734
aF17.952825398237337
aF248.30220437232518
aF223.80220437232518
aF34.5
aF10.0
asa(dp292
g2
g3
sg4
(lp293
F24.5
aF18.727921843528748
aI0
aI49
aF24.5
aF27.999994995503585
aF3.4999949955035845
aF66.6583182488442
aF42.158318248844196
aF25.0
aF0.5
asa(dp294
g2
g3
sg4
(lp295
F139.0
aF57.455843687057495
aI0
aI324
aF185.0
aF217.49999179664883
aF78.49999179664883
aF704.9466069488201
aF565.9466069488201
aF180.0
aF41.0
asa(dp296
g2
g3
sg4
(lp297
F202.0
aF64.76955199241638
aI0
aI432
aF230.0
aF310.7862140951256
aF108.78621409512562
aF941.5485236084611
aF739.5485236084611
aF230.5
aF28.5
asa(dp298
g2
g3
sg4
(lp299
F167.5
aF66.87005722522736
aI0
aI378
aF210.5
aF250.98673620723275
aF83.48673620723275
aF1128.1919883681776
aF960.6919883681776
aF211.0
aF43.5
asa(dp300
g2
g3
sg4
(lp301
F141.5
aF46.041630148887634
aI0
aI216
aF74.5
aF187.0
aF45.5
aF483.2727680054788
aF341.7727680054788
aF145.5
aF4.0
asa(dp302
g2
g11
sg4
(lp303
F1824.5
aF220.20815074443817
aI0
aI3432
aF1607.5
aF3052.2866571787745
aF1227.7866571787745
aF10420.360384275573
aF8595.860384275573
aF2237.5
aF413.0
asa(dp304
g2
g16
sg4
(lp305
F13170.5
aF654.281306385994
aI1
aI23250
aF10079.5
aF19155.567373710684
aF5985.0673737106845
aF42525.818200696376
aF29355.318200696376
aF15419.5
aF2249.0
asa(dp306
g2
g3
sg4
(lp307
F64.0
aF40.28427076339722
aI0
aI195
aF131.0
aF92.88000576019294
aF28.880005760192944
aF483.2727680054788
aF419.2727680054788
aF71.0
aF7.0
asa(dp308
g2
g11
sg4
(lp309
F1628.0
aF245.76449966430664
aI1
aI2790
aF1162.0
aF2491.159299123872
aF863.1592991238722
aF6335.872472602365
aF4707.872472602365
aF1952.5
aF324.5
asa(dp310
g2
g16
sg4
(lp311
F1469.5
aF163.29646337032318
aI0
aI2160
aF690.5
aF2063.2670446015545
aF593.7670446015545
aF3943.380130468596
aF2473.880130468596
aF1615.0
aF145.5
asa(dp312
g2
g3
sg4
(lp313
F31.5
aF20.727921843528748
aI0
aI56
aF24.5
aF35.999997419073225
aF4.499997419073225
aF88.3222654670468
aF56.822265467046805
aF31.5
aF0.0
asa(dp314
g2
g3
sg4
(lp315
F953.0
aF203.48022890090942
aI0
aI3172
aF2219.0
aF2169.3359367649537
aF1216.3359367649537
aF8158.977241441895
aF7205.977241441895
aF1540.0
aF587.0
asa(dp316
g2
g3
sg4
(lp317
I0
aF0.0
aI0
aI1
aI1
aF0.0
aF0.0
aF6.283185307179586
aF6.283185307179586
aF0.0
aF0.0
asa(dp318
g2
g3
sg4
(lp319
F217.5
aF127.63960921764374
aI0
aI1080
aF862.5
aF992.4706203866954
aF774.9706203866954
aF2642.916804948568
aF2425.416804948568
aF633.5
aF416.0
asa(dp320
g2
g11
sg4
(lp321
F2374.0
aF264.3919162750244
aI0
aI4012
aF1638.0
aF3588.6831132292864
aF1214.6831132292864
aF7752.984982792147
aF5378.984982792147
aF2823.0
aF449.0
asa(dp322
g2
g3
sg4
(lp323
F283.5
aF64.18376553058624
aI0
aI441
aF157.5
aF335.999939946043
aF52.499939946043014
aF906.5530268268772
aF623.0530268268772
aF287.5
aF4.0
asa(dp324
g2
g3
sg4
(lp325
F2122.5
aF656.281306385994
aI1
aI11931
aF9808.5
aF9721.991754443618
aF7599.4917544436175
aF25930.082689137962
aF23807.582689137962
aF7271.5
aF5149.0
asa(dp326
g2
g3
sg4
(lp327
F51.5
aF34.041630148887634
aI0
aI143
aF91.5
aF69.77049524673384
aF18.270495246733844
aF346.62320579715004
aF295.12320579715004
aF56.0
aF4.5
asa(dp328
g2
g3
sg4
(lp329
F443.0
aF78.42640614509583
aI0
aI625
aF182.0
aF544.4999285104095
aF101.49992851040952
aF1019.8722063829297
aF576.8722063829297
aF451.5
aF8.5
asa(dp330
g2
g3
sg4
(lp331
F61.5
aF30.38477599620819
aI0
aI110
aF48.5
aF76.99999213819319
aF15.499992138193193
aF180.43704172625803
aF118.93704172625803
aF64.5
aF3.0
asa(dp332
g2
g3
sg4
(lp333
I0
aF0.0
aI0
aI1
aI1
aF0.0
aF0.0
aF6.283185307179586
aF6.283185307179586
aF0.0
aF0.0
asa(dp334
g2
g3
sg4
(lp335
F119.5
aF47.21320307254791
aI0
aI210
aF90.5
aF170.3207506463732
aF50.8207506463732
aF521.6013380859613
aF402.1013380859613
aF133.5
aF14.0
asa(dp336
g2
g3
sg4
(lp337
F545.5
aF179.5807341337204
aI0
aI1406
aF860.5
aF1108.7996717539208
aF563.2996717539208
aF2618.8379161208263
aF2073.3379161208263
aF919.5
aF374.0
asa(dp338
g2
g3
sg4
(lp339
F145.0
aF51.455843687057495
aI0
aI260
aF115.0
aF204.5882800302934
aF59.58828003029339
aF683.2477613032704
aF538.2477613032704
aF155.0
aF10.0
asa(dp340
g2
g16
sg4
(lp341
F2265.5
aF178.61017167568207
aI0
aI2907
aF641.5
aF2800.0
aF534.5
aF6267.547724629882
aF4002.0477246298824
aF2294.5
aF29.0
asa(dp342
g2
g11
sg4
(lp343
F1583.5
aF155.4385987520218
aI0
aI2350
aF766.5
aF2043.4997718347004
aF459.99977183470037
aF4302.696588107193
aF2719.196588107193
aF1645.5
aF62.0
asa(dp344
g2
g11
sg4
(lp345
F4445.0
aF426.41630148887634
aI0
aI9047
aF4602.0
aF7806.636998783215
aF3361.636998783215
aF24851.88766179914
aF20406.88766179914
aF5664.0
aF1219.0
asa(dp346
g2
g11
sg4
(lp347
F1983.5
aF198.2670258283615
aI0
aI3358
aF1374.5
aF2576.823357482761
aF593.3233574827609
aF8777.911664772811
aF6794.4116647728115
aF2072.0
aF88.5
asa(dp348
g2
g3
sg4
(lp349
F167.5
aF60.5269113779068
aI0
aI378
aF210.5
aF250.84931801143284
aF83.34931801143284
aF906.5530268268772
aF739.0530268268772
aF202.5
aF35.0
asa(dp350
g2
g3
sg4
(lp351
F83.0
aF34.97056245803833
aI0
aI132
aF49.0
aF110.0
aF27.0
aF223.59714844305196
aF140.59714844305196
aF87.0
aF4.0
asa(dp352
g2
g3
sg4
(lp353
F31.0
aF30.14213538169861
aI0
aI96
aF65.0
aF47.586208438821814
aF16.586208438821814
aF283.2978253657301
aF252.2978253657301
aF37.0
aF6.0
asa(dp354
g2
g3
sg4
(lp355
F168.0
aF86.91168737411499
aI0
aI504
aF336.0
aF439.0853233439375
aF271.0853233439375
aF2043.0774316535544
aF1875.0774316535544
aF283.5
aF115.5
asa(dp356
g2
g16
sg4
(lp357
F2952.5
aF252.20815074443817
aI0
aI5292
aF2339.5
aF4597.38089493505
aF1644.8808949350496
aF12106.817263914185
aF9154.317263914185
aF3463.5
aF511.0
asa(dp358
g2
g3
sg4
(lp359
F58.0
aF29.79898953437805
aI0
aI110
aF52.0
aF71.3999930122518
aF13.399993012251798
aF167.71179697192895
aF109.71179697192895
aF61.0
aF3.0
asa(dp360
g2
g11
sg4
(lp361
F1365.0
aF240.30865597724915
aI1
aI2400
aF1035.0
aF2171.512590666054
aF806.5125906660542
aF4416.113238484325
aF3051.113238484325
aF1796.5
aF431.5
asa(dp362
g2
g3
sg4
(lp363
F67.0
aF43.455843687057495
aI0
aI208
aF141.0
aF126.93631616904895
aF59.93631616904895
aF509.93607759011843
aF442.93607759011843
aF82.0
aF15.0
asa(dp364
g2
g11
sg4
(lp365
F1406.5
aF254.83556735515594
aI1
aI2907
aF1500.5
aF2295.0702596667106
aF888.5702596667106
aF5562.537751973763
aF4156.037751973763
aF1875.0
aF468.5
asa(dp366
g2
g11
sg4
(lp367
F1920.5
aF243.3208485841751
aI1
aI3162
aF1241.5
aF2863.3847461770347
aF942.8847461770347
aF6575.843100649808
aF4655.343100649808
aF2265.0
aF344.5
asa(dp368
g2
g3
sg4
(lp369
F8.5
aF12.242640614509583
aI0
aI18
aF9.5
aF10.0
aF1.5
aF43.3279070188429
aF34.8279070188429
aF8.5
aF0.0
asa(dp370
g2
g16
sg4
(lp371
F1937.0
aF172.5096664428711
aI0
aI2842
aF905.0
aF2476.9233865969873
aF539.9233865969873
aF5954.253809992462
aF4017.2538099924623
aF2011.5
aF74.5
asa(dp372
g2
g3
sg4
(lp373
F10.5
aF13.41421353816986
aI0
aI20
aF9.5
aF12.0
aF1.5
aF41.66144712038661
aF31.16144712038661
aF11.0
aF0.5
asa(dp374
g2
g11
sg4
(lp375
F1934.0
aF225.27921843528748
aI1
aI3213
aF1279.0
aF2595.6923287404934
aF661.6923287404934
aF7007.4553203740215
aF5073.4553203740215
aF2118.5
aF184.5
asa(dp376
g2
g3
sg4
(lp377
F121.5
aF70.18376553058624
aI0
aI468
aF346.5
aF220.77123866894453
aF99.27123866894453
aF1368.1617892942022
aF1246.6617892942022
aF184.0
aF62.5
asa(dp378
g2
g3
sg4
(lp379
F49.0
aF28.14213538169861
aI0
aI90
aF41.0
aF67.99998493693602
aF18.999984936936016
aF166.64578848154645
aF117.64578848154645
aF53.0
aF4.0
asa(dp380
g2
g16
sg4
(lp381
F3568.0
aF381.50461411476135
aI1
aI6314
aF2746.0
aF6156.0
aF2588.0
aF14031.778637032436
aF10463.778637032436
aF4868.5
aF1300.5
asa(dp382
g2
g16
sg4
(lp383
F8783.5
aF440.31579625606537
aI0
aI15730
aF6946.5
aF13841.048950219993
aF5057.548950219993
aF34851.71764263569
aF26068.21764263569
aF10100.5
aF1317.0
asa(dp384
g2
g3
sg4
(lp385
F25.5
aF21.899494767189026
aI0
aI54
aF28.5
aF36.00000063062271
aF10.500000630622708
aF133.31661678981106
aF107.81661678981106
aF27.5
aF2.0
asa(dp386
g2
g3
sg4
(lp387
F22385.0
aF2127.914986848831
aI1
aI64680
aF42295.0
aF53811.57670376217
aF31426.57670376217
aF159143.36644480037
aF136758.36644480037
aF41732.5
aF19347.5
asa(dp388
g2
g11
sg4
(lp389
F1209.5
aF203.722869515419
aI0
aI2550
aF1340.5
aF2163.47404433247
aF953.9740443324699
aF4611.4104653648155
aF3401.9104653648155
aF1730.0
aF520.5
asa(dp390
g2
g16
sg4
(lp391
F2570.0
aF196.6518018245697
aI0
aI3591
aF1021.0
aF3317.882872494869
aF747.8828724948689
aF6407.530188317257
aF3837.530188317257
aF2671.5
aF101.5
asa(dp392
g2
g11
sg4
(lp393
F757.5
aF143.29646337032318
aI0
aI1512
aF754.5
aF1364.1979230814468
aF606.6979230814468
aF3370.7263479073113
aF2613.2263479073113
aF989.0
aF231.5
asa(dp394
g2
g3
sg4
(lp395
F47.0
aF27.313708305358887
aI0
aI77
aF30.0
aF60.0
aF13.0
aF181.64391937354492
aF134.64391937354492
aF48.5
aF1.5
asa(dp396
g2
g11
sg4
(lp397
F2006.5
aF187.92387998104095
aI0
aI3016
aF1009.5
aF2640.8272736810613
aF634.3272736810613
aF5980.942638466598
aF3974.4426384665976
aF2167.5
aF161.0
asa(dp398
g2
g11
sg4
(lp399
F1650.0
aF257.2792184352875
aI1
aI2912
aF1262.0
aF2805.0
aF1155.0
aF5614.7538608073955
aF3964.7538608073955
aF2177.0
aF527.0
asa(dp400
g2
g3
sg4
(lp401
F19083.5
aF886.4478269815445
aI1
aI33165
aF14081.5
aF31663.736830370966
aF12580.236830370966
aF69064.67704806967
aF49981.17704806967
aF24341.5
aF5258.0
asa(dp402
g2
g3
sg4
(lp403
F55.5
aF28.727921843528748
aI0
aI90
aF34.5
aF72.0
aF16.5
aF166.64578848154645
aF111.14578848154645
aF58.0
aF2.5
asa(dp404
g2
g11
sg4
(lp405
F1099.5
aF202.06601536273956
aI0
aI2184
aF1084.5
aF1868.9998465387325
aF769.4998465387325
aF4501.10272328489
aF3401.60272328489
aF1457.0
aF357.5
asa(dp406
g2
g3
sg4
(lp407
F22.5
aF21.071067690849304
aI0
aI45
aF22.5
aF32.0
aF9.5
aF108.31976646027127
aF85.81976646027127
aF25.5
aF3.0
asa(dp408
g2
g11
sg4
(lp409
F861.5
aF156.95331752300262
aI0
aI2070
aF1208.5
aF1713.7402106710797
aF852.2402106710797
aF5362.66131386894
aF4501.16131386894
aF1175.0
aF313.5
asa(dp410
g2
g11
sg4
(lp411
F1884.5
aF195.92387998104095
aI1
aI2744
aF859.5
aF2447.119719873881
aF562.619719873881
aF5660.378945055655
aF3775.878945055655
aF2045.0
aF160.5
asa(dp412
g2
g3
sg4
(lp413
F535.0
aF90.91168737411499
aI0
aI832
aF297.0
aF709.4998151353684
aF174.4998151353684
aF1736.4489475686087
aF1201.4489475686087
aF552.5
aF17.5
asa(dp414
g2
g16
sg4
(lp415
F1842.5
aF181.4385987520218
aI1
aI2499
aF656.5
aF2400.0
aF557.5
aF4710.942896657498
aF2868.442896657498
aF1912.0
aF69.5
asa(dp416
g2
g11
sg4
(lp417
F1750.0
aF243.62236428260803
aI1
aI3074
aF1324.0
aF2674.233904194989
aF924.233904194989
aF6447.524720221405
aF4697.524720221405
aF2138.0
aF388.0
asa(dp418
g2
g11
sg4
(lp419
F1548.5
aF196.89444243907928
aI1
aI2496
aF947.5
aF2135.1571077341214
aF586.6571077341214
aF4616.804745416289
aF3068.304745416289
aF1729.5
aF181.0
asa(dp420
g2
g3
sg4
(lp421
F1237.0
aF132.22539567947388
aI0
aI1634
aF397.0
aF1554.0
aF317.0
aF3145.4172483943753
aF1908.4172483943753
aF1256.5
aF19.5
asa(dp422
g2
g3
sg4
(lp423
F53.5
aF31.899494767189026
aI0
aI96
aF42.5
aF73.52940855073575
aF20.029408550735752
aF261.63390876367527
aF208.13390876367527
aF59.0
aF5.5
asa(dp424
g2
g3
sg4
(lp425
F8372.5
aF934.5310872793198
aI1
aI19402
aF11029.5
aF18336.178638698068
aF9963.678638698068
aF54037.64099643007
aF45665.14099643007
aF13837.0
aF5464.5
asa(dp426
g2
g11
sg4
(lp427
F1883.0
aF280.04877042770386
aI1
aI3534
aF1651.0
aF3061.8118402382825
aF1178.8118402382825
aF6313.844284835331
aF4430.844284835331
aF2484.0
aF601.0
asa(dp428
g2
g3
sg4
(lp429
I0
aF4.0
aI0
aI3
aI3
aF0.0
aF0.0
aF6.665830922074279
aF6.665830922074279
aF0.0
aF0.0
asa(dp430
g2
g11
sg4
(lp431
F1006.5
aF128.1248904466629
aI0
aI1628
aF621.5
aF1387.6725601607177
aF381.1725601607177
aF3220.2152680922195
aF2213.7152680922195
aF1065.0
aF58.5
asa(dp432
g2
g3
sg4
(lp433
F14.0
aF14.485281229019165
aI0
aI30
aF16.0
aF17.49999864235724
aF3.499998642357241
aF48.32727338013026
aF34.32727338013026
aF14.0
aF0.0
asa(dp434
g2
g11
sg4
(lp435
F1550.0
aF255.90663504600525
aI1
aI3074
aF1524.0
aF2563.8896712367714
aF1013.8896712367714
aF5634.095173537585
aF4084.0951735375847
aF2075.5
aF525.5
asa(dp436
g2
g3
sg4
(lp437
F45.0
aF27.313708305358887
aI0
aI80
aF35.0
aF59.79999638214076
aF14.799996382140762
aF188.30972584154023
aF143.30972584154023
aF47.0
aF2.0
asa(dp438
g2
g3
sg4
(lp439
F220.0
aF86.08326029777527
aI0
aI612
aF392.0
aF404.0272136140702
aF184.0272136140702
aF1841.4357121502233
aF1621.4357121502233
aF341.5
aF121.5
asa(dp440
g2
g3
sg4
(lp441
I0
aF4.0
aI0
aI3
aI3
aF0.0
aF0.0
aF6.665830922074279
aF6.665830922074279
aF0.0
aF0.0
asa(dp442
g2
g11
sg4
(lp443
F1395.0
aF237.27921843528748
aI1
aI2576
aF1181.0
aF2262.9998138019437
aF867.9998138019437
aF5281.005018132942
aF3886.0050181329416
aF1804.0
aF409.0
asa(dp444
g2
g3
sg4
(lp445
I0
aF0.0
aI0
aI1
aI1
aF0.0
aF0.0
aF6.283185307179586
aF6.283185307179586
aF0.0
aF0.0
asa(dp446
g2
g3
sg4
(lp447
I0
aF0.0
aI0
aI1
aI1
aF0.0
aF0.0
aF6.283185307179586
aF6.283185307179586
aF0.0
aF0.0
asa(dp448
g2
g3
sg4
(lp449
F448.5
aF123.63960921764374
aI0
aI1452
aF1003.5
aF915.1572758632246
aF466.65727586322464
aF3962.836769474953
aF3514.336769474953
aF677.5
aF229.0
asa(dp450
g2
g3
sg4
(lp451
F18.0
aF18.0
aI0
aI28
aF10.0
aF18.0
aF0.0
aF74.99060211954385
aF56.99060211954385
aF18.0
aF0.0
asa(dp452
g2
g11
sg4
(lp453
F1517.0
aF198.5096664428711
aI0
aI2652
aF1135.0
aF2491.416408272751
aF974.4164082727511
aF6028.537627990279
aF4511.537627990279
aF1990.0
aF473.0
asa(dp454
g2
g3
sg4
(lp455
F6446.0
aF404.1320307254791
aI0
aI13950
aF7504.0
aF9986.46830350568
aF3540.4683035056805
aF43822.83818984424
aF37376.83818984424
aF6855.0
aF409.0
asa(dp456
g2
g11
sg4
(lp457
F2406.5
aF191.23758828639984
aI0
aI3480
aF1073.5
aF3149.9999983901507
aF743.4999983901507
aF6837.765635309749
aF4431.265635309749
aF2476.0
aF69.5
asa(dp458
g2
g3
sg4
(lp459
F116.5
aF43.21320307254791
aI0
aI187
aF70.5
aF160.0
aF43.5
aF441.6113229730795
aF325.1113229730795
aF123.0
aF6.5
asa(dp460
g2
g3
sg4
(lp461
F16.5
aF15.899494767189026
aI0
aI35
aF18.5
aF20.999997426739355
aF4.499997426739355
aF61.65894007291293
aF45.15894007291293
aF17.0
aF0.5
asa(dp462
g2
g11
sg4
(lp463
F1841.5
aF228.20815074443817
aI1
aI3000
aF1158.5
aF2773.9995621432754
aF932.4995621432754
aF5800.939769593395
aF3959.439769593395
aF2111.0
aF269.5
asa(dp464
g2
g11
sg4
(lp465
F4163.0
aF447.5878744125366
aI0
aI9202
aF5039.0
aF7201.957229377236
aF3038.957229377236
aF19151.03730865057
aF14988.037308650572
aF6046.5
aF1883.5
asa(dp466
g2
g3
sg4
(lp467
F31.0
aF41.79898953437805
aI0
aI152
aF121.0
aF60.00000447100501
aF29.000004471005013
aF599.9247764122648
aF568.9247764122648
aF40.5
aF9.5
asa(dp468
g2
g3
sg4
(lp469
F252.0
aF60.28427076339722
aI0
aI361
aF109.0
aF324.0
aF72.0
aF689.5884343855265
aF437.5884343855265
aF257.0
aF5.0
asa(dp470
g2
g3
sg4
(lp471
F29.0
aF21.313708305358887
aI0
aI56
aF27.0
aF38.499996069096596
aF9.499996069096596
aF108.31976646027127
aF79.31976646027127
aF30.0
aF1.0
asa(dp472
g2
g3
sg4
(lp473
F46.0
aF26.97056245803833
aI0
aI90
aF44.0
aF59.9999972719379
aF13.9999972719379
aF149.9811941030662
aF103.9811941030662
aF49.5
aF3.5
asa(dp474
g2
g11
sg4
(lp475
F1083.5
aF200.40916121006012
aI0
aI2244
aF1160.5
aF2047.3725108685612
aF963.8725108685612
aF5215.588101233947
aF4132.088101233947
aF1536.5
aF453.0
asa(dp476
g2
g11
sg4
(lp477
F1787.0
aF175.48022890090942
aI0
aI3080
aF1293.0
aF2270.7562995754124
aF483.7562995754124
aF6259.550247002176
aF4472.550247002176
aF1880.5
aF93.5
asa(dp478
g2
g16
sg4
(lp479
F2062.0
aF170.5096664428711
aI0
aI2808
aF746.0
aF2591.499961451482
aF529.4999614514818
aF4785.814328155227
aF2723.8143281552266
aF2094.5
aF32.5
asa(dp480
g2
g3
sg4
(lp481
F1427.0
aF179.9655101299286
aI0
aI3315
aF1888.0
aF1858.559470214881
aF431.559470214881
aF9765.442042975545
aF8338.442042975545
aF1488.0
aF61.0
asa(dp482
g2
g11
sg4
(lp483
F2509.5
aF203.722869515419
aI0
aI3657
aF1147.5
aF3490.540390337468
aF981.0403903374681
aF8032.325867078186
aF5522.825867078186
aF2681.5
aF172.0
asa(dp484
g2
g16
sg4
(lp485
F2378.0
aF184.99494767189026
aI0
aI3304
aF926.0
aF3009.9996585895133
aF631.9996585895133
aF6199.722874331711
aF3821.722874331711
aF2413.5
aF35.5
asa(dp486
g2
g3
sg4
(lp487
F63.5
aF42.041630148887634
aI0
aI196
aF132.5
aF95.99998592446718
aF32.49998592446718
aF483.2727680054788
aF419.7727680054788
aF85.0
aF21.5
asa(dp488
g2
g11
sg4
(lp489
F1055.5
aF125.15432798862457
aI0
aI1435
aF379.5
aF1322.4906737872516
aF266.9906737872516
aF2837.575826835841
aF1782.0758268358409
aF1083.5
aF28.0
asa(dp490
g2
g16
sg4
(lp491
F1577.0
aF155.1959581375122
aI0
aI2209
aF632.0
aF2036.5173976709048
aF459.51739767090476
aF4221.1378949372365
aF2644.1378949372365
aF1642.5
aF65.5
asa(dp492
g2
g3
sg4
(lp493
F208.0
aF58.28427076339722
aI0
aI330
aF122.0
aF265.999982928377
aF57.999982928376994
aF794.9004566013244
aF586.9004566013244
aF216.0
aF8.0
asa(dp494
g2
g16
sg4
(lp495
F5381.5
aF399.4041088819504
aI0
aI10057
aF4675.5
aF8200.054365133692
aF2818.554365133692
aF23800.351768590022
aF18418.851768590022
aF6626.0
aF1244.5
asa(dp496
g2
g11
sg4
(lp497
F769.0
aF171.68123936653137
aI0
aI1786
aF1017.0
aF1543.9027244792087
aF774.9027244792087
aF3976.168290117248
aF3207.168290117248
aF1193.0
aF424.0
asa(dp498
g2
g3
sg4
(lp499
F56.0
aF32.62741661071777
aI0
aI121
aF65.0
aF76.49998836209124
aF20.499988362091244
aF248.30220437232518
aF192.30220437232518
aF61.5
aF5.5
asa(dp500
g2
g11
sg4
(lp501
F2290.5
aF185.78174459934235
aI0
aI2964
aF673.5
aF2834.1931734324025
aF543.6931734324025
aF5647.046898812815
aF3356.546898812815
aF2386.5
aF96.0
asa(dp502
g2
g11
sg4
(lp503
F1461.0
aF154.85281229019165
aI0
aI2304
aF843.0
aF1830.1523535441374
aF369.15235354413744
aF4056.1586055352104
aF2595.1586055352104
aF1573.5
aF112.5
asa(dp504
g2
g3
sg4
(lp505
I0
aF2.8284270763397217
aI0
aI4
aI4
aF0.0
aF0.0
aF6.283185307179586
aF6.283185307179586
aF0.0
aF0.0
asa(dp506
g2
g3
sg4
(lp507
F244.5
aF90.5269113779068
aI0
aI595
aF350.5
aF492.6242068862666
aF248.12420688626662
aF2166.394980599653
aF1921.894980599653
aF359.5
aF115.0
asa(dp508
g2
g3
sg4
(lp509
F42.0
aF24.14213538169861
aI0
aI72
aF30.0
aF49.49999282659701
aF7.499992826597008
aF121.65141081936363
aF79.65141081936363
aF42.5
aF0.5
asa(dp510
g2
g11
sg4
(lp511
F987.0
aF123.88224983215332
aI0
aI1512
aF525.0
aF1316.4856152005377
aF329.4856152005377
aF3167.941914411047
aF2180.941914411047
aF1019.0
aF32.0
asa(dp512
g2
g11
sg4
(lp513
F1836.0
aF230.93607258796692
aI0
aI4154
aF2318.0
aF3084.091668107023
aF1248.091668107023
aF8559.317542173845
aF6723.317542173845
aF2299.5
aF463.5
asa(dp514
g2
g11
sg4
(lp515
F830.5
aF228.35028612613678
aI0
aI1935
aF1104.5
aF1826.590956825181
aF996.0909568251809
aF4044.2865928865504
aF3213.7865928865504
aF1433.5
aF603.0
asa(dp516
g2
g16
sg4
(lp517
F7415.0
aF382.534051656723
aI0
aI10504
aF3089.0
aF10061.985868736985
aF2646.985868736985
aF22040.57297537147
aF14625.57297537147
aF8181.0
aF766.0
asa(dp518
g2
g3
sg4
(lp519
F19.0
aF17.313708305358887
aI0
aI42
aF23.0
aF24.499998571344804
aF5.499998571344804
aF60.40908782515716
aF41.40908782515716
aF20.0
aF1.0
asa(dp520
g2
g16
sg4
(lp521
F2978.0
aF231.62236428260803
aI0
aI4526
aF1548.0
aF4281.299343226739
aF1303.2993432267394
aF9765.442042975545
aF6787.442042975545
aF3305.5
aF327.5
asa(dp522
g2
g11
sg4
(lp523
F2268.0
aF221.82337474822998
aI1
aI3364
aF1096.0
aF2912.4778423128155
aF644.4778423128155
aF6454.203213152677
aF4186.203213152677
aF2454.0
aF186.0
asa(dp524
g2
g16
sg4
(lp525
F2012.0
aF168.85281229019165
aI0
aI2700
aF688.0
aF2553.7998966728046
aF541.7998966728046
aF4711.983849616819
aF2699.9838496168186
aF2044.5
aF32.5
asa(dp526
g2
g3
sg4
(lp527
F134.5
aF50.041630148887634
aI0
aI247
aF112.5
aF170.99996812940117
aF36.49996812940117
aF674.9153880242437
aF540.4153880242437
aF141.0
aF6.5
asa(dp528
g2
g3
sg4
(lp529
F2227.5
aF190.40916121006012
aI0
aI3445
aF1217.5
aF3040.000703650294
aF812.5007036502939
aF8325.622509155177
aF6098.122509155177
aF2296.0
aF68.5
asa(dp530
g2
g11
sg4
(lp531
F1114.0
aF194.6518018245697
aI1
aI2000
aF886.0
aF1813.4553313388606
aF699.4553313388606
aF4202.80618461512
aF3088.8061846151204
aF1395.5
aF281.5
asa(dp532
g2
g3
sg4
(lp533
F2737.5
aF217.86500489711761
aI0
aI4221
aF1483.5
aF3734.4340154598467
aF996.9340154598467
aF9436.700164839342
aF6699.200164839342
aF2894.0
aF156.5
asa(dp534
g2
g3
sg4
(lp535
F91.5
aF48.870057225227356
aI0
aI240
aF148.5
aF131.59998501322843
aF40.099985013228434
aF736.5743969373156
aF645.0743969373156
aF101.5
aF10.0
asa(dp536
g2
g3
sg4
(lp537
F30.0
aF21.313708305358887
aI0
aI56
aF26.0
aF40.49999633781408
aF10.499996337814082
aF85.02414240321141
aF55.024142403211414
aF32.0
aF2.0
asa(dp538
g2
g11
sg4
(lp539
F2175.5
aF305.6051193475723
aI1
aI4332
aF2156.5
aF3870.3396173769725
aF1694.8396173769725
aF9932.92332913914
aF7757.423329139139
aF3030.5
aF855.0
asa(dp540
g2
g3
sg4
(lp541
F120.0
aF41.455843687057495
aI0
aI195
aF75.0
aF140.00000262584945
aF20.000002625849447
aF386.61822367647807
aF266.61822367647807
aF121.0
aF1.0
asa(dp542
g2
g3
sg4
(lp543
F744.0
aF122.71067690849304
aI0
aI1330
aF586.0
aF1054.499924203672
aF310.499924203672
aF2797.5256738304624
aF2053.5256738304624
aF860.5
aF116.5
asa(dp544
g2
g11
sg4
(lp545
F678.5
aF125.29646337032318
aI0
aI1102
aF423.5
aF971.2274124079995
aF292.7274124079995
aF2316.493632767135
aF1637.9936327671348
aF773.0
aF94.5
asa(dp546
g2
g16
sg4
(lp547
F5327.5
aF278.3502861261368
aI0
aI6880
aF1552.5
aF6715.0
aF1387.5
aF12461.17428930258
aF7133.67428930258
aF5442.0
aF114.5
asa(dp548
g2
g3
sg4
(lp549
F3.0
aF8.0
aI0
aI8
aF5.0
aF3.0
aF0.0
aF16.66457956221105
aF13.664579562211049
aF3.0
aF0.0
asa(dp550
g2
g16
sg4
(lp551
F7314.0
aF357.9898953437805
aI0
aI10388
aF3074.0
aF9808.097671004303
aF2494.0976710043033
aF20556.253203665117
aF13242.253203665117
aF7870.0
aF556.0
asa(dp552
g2
g3
sg4
(lp553
F56.0
aF37.79898953437805
aI0
aI154
aF98.0
aF97.31034548761545
aF41.31034548761545
aF416.6144768570352
aF360.6144768570352
aF66.5
aF10.5
asa(dp554
g2
g3
sg4
(lp555
F96.0
aF53.31370830535889
aI0
aI168
aF72.0
aF130.84139615411186
aF34.84139615411186
aF896.5542305136079
aF800.5542305136079
aF109.0
aF13.0
asa(dp556
g2
g11
sg4
(lp557
F1075.0
aF181.68123936653137
aI0
aI1925
aF850.0
aF1644.164100652626
aF569.1641006526261
aF5141.022576869198
aF4066.022576869198
aF1383.5
aF308.5
asa(dp558
g2
g3
sg4
(lp559
F7.0
aF10.828427076339722
aI0
aI15
aF8.0
aF8.0
aF1.0
aF30.10039521659842
aF23.10039521659842
aF7.0
aF0.0
asa(dp560
g2
g16
sg4
(lp561
F2392.0
aF185.1959581375122
aI0
aI3080
aF688.0
aF2958.1323055790563
aF566.1323055790563
aF5696.145756460241
aF3304.1457564602406
aF2435.0
aF43.0
asa(dp562
g2
g3
sg4
(lp563
F75.5
aF40.38477599620819
aI0
aI160
aF84.5
aF98.79998321588573
aF23.29998321588573
aF456.60945027899714
aF381.10945027899714
aF83.0
aF7.5
asa(dp564
g2
g3
sg4
(lp565
F57.5
aF34.38477599620819
aI0
aI130
aF72.5
aF85.52578211860236
aF28.025782118602365
aF321.62632345392245
aF264.12632345392245
aF64.5
aF7.0
asa(dp566
g2
g11
sg4
(lp567
F1543.0
aF185.82337474822998
aI0
aI2907
aF1364.0
aF2283.027758264041
aF740.027758264041
aF5412.512509726408
aF3869.512509726408
aF1846.0
aF303.0
asa(dp568
g2
g3
sg4
(lp569
F46.5
aF28.38477599620819
aI0
aI100
aF53.5
aF62.9999875597714
aF16.499987559771398
aF166.6457576221682
aF120.14575762216819
aF51.0
aF4.5
asa(dp570
g2
g3
sg4
(lp571
F1847.5
aF211.37972366809845
aI0
aI4081
aF2233.5
aF2913.092810528353
aF1065.5928105283529
aF11666.872904781618
aF9819.372904781618
aF2205.5
aF358.0
asa(dp572
g2
g11
sg4
(lp573
F635.0
aF124.22539567947388
aI0
aI1247
aF612.0
aF1099.849791946588
aF464.8497919465881
aF3221.263144504707
aF2586.263144504707
aF779.5
aF144.5
asa(dp574
g2
g11
sg4
(lp575
F1569.0
aF276.73506212234497
aI1
aI3024
aF1455.0
aF2592.6361949990387
aF1023.6361949990387
aF5367.36018021115
aF3798.36018021115
aF2207.0
aF638.0
asa(dp576
g2
g3
sg4
(lp577
F153.5
aF50.041630148887634
aI0
aI240
aF86.5
aF209.0
aF55.5
aF608.2570557879114
aF454.75705578791144
aF161.5
aF8.0
asa(dp578
g2
g11
sg4
(lp579
F2949.0
aF241.27921843528748
aI1
aI4087
aF1138.0
aF3960.0
aF1011.0
aF7646.745867547524
aF4697.745867547524
aF3146.5
aF197.5
asa(dp580
g2
g16
sg4
(lp581
F3422.0
aF302.3919162750244
aI0
aI6141
aF2719.0
aF5326.725728863879
aF1904.7257288638793
aF13711.614845921267
aF10289.614845921267
aF4015.5
aF593.5
asa(dp582
g2
g3
sg4
(lp583
I0
aF0.0
aI0
aI1
aI1
aF0.0
aF0.0
aF6.283185307179586
aF6.283185307179586
aF0.0
aF0.0
asa(dp584
g2
g3
sg4
(lp585
F517.0
aF133.88224983215332
aI0
aI925
aF408.0
aF844.4858646449575
aF327.4858646449575
aF2342.5111862598123
aF1825.5111862598123
aF672.5
aF155.5
asa(dp586
g2
g11
sg4
(lp587
F1204.5
aF187.23758828639984
aI1
aI2064
aF859.5
aF1940.3152457966498
aF735.8152457966498
aF5607.630542517168
aF4403.130542517168
aF1465.0
aF260.5
asa(dp588
g2
g16
sg4
(lp589
F11643.5
aF457.34523379802704
aI0
aI17712
aF6068.5
aF16508.20210800157
aF4864.702108001569
aF38777.46520080535
aF27133.965200805353
aF12469.0
aF825.5
asa(dp590
g2
g3
sg4
(lp591
F96.0
aF40.62741661071777
aI0
aI165
aF69.0
aF132.99997268830703
aF36.999972688307025
aF368.2871793690065
aF272.2871793690065
aF102.5
aF6.5
asa(dp592
g2
g16
sg4
(lp593
F4627.0
aF376.3919162750244
aI1
aI6560
aF1933.0
aF6382.55748839333
aF1755.5574883933295
aF16814.559950944782
aF12187.559950944782
aF5634.5
aF1007.5
asa(dp594
g2
g11
sg4
(lp595
F2589.0
aF190.99494767189026
aI0
aI3481
aF892.0
aF3270.8821694061917
aF681.8821694061917
aF6064.899388267479
aF3475.8993882674786
aF2625.5
aF36.5
asa(dp596
g2
g3
sg4
(lp597
F103.0
aF43.455843687057495
aI0
aI208
aF105.0
aF137.49999655798092
aF34.49999655798092
aF541.5987451499133
aF438.59874514991327
aF107.5
aF4.5
asa(dp598
g2
g3
sg4
(lp599
F291.0
aF107.25483322143555
aI0
aI816
aF525.0
aF494.11759400414667
aF203.11759400414667
aF3921.1752297179683
aF3630.1752297179683
aF317.0
aF26.0
asa(dp600
S'classe'
p601
S'o'
p602
sS'caracteristicas'
p603
(lp604
F535.0
aF119.39696860313416
aI0
aI1365
aF830.0
aF921.7493426280125
aF386.7493426280125
aF3521.225392728617
aF2986.225392728617
aF692.5
aF157.5
asa(dp605
g601
S'n'
p606
sg603
(lp607
F1873.0
aF264.7939372062683
aI1
aI2912
aF1039.0
aF2805.0
aF932.0
aF6088.429799081481
aF4215.429799081481
aF2366.5
aF493.5
asa(dp608
g601
g602
sg603
(lp609
F268.5
aF94.81118214130402
aI0
aI714
aF445.5
aF570.4850460020825
aF301.9850460020825
aF2016.4139391746278
aF1747.9139391746278
aF402.0
aF133.5
asa(dp610
g601
S'l'
p611
sg603
(lp612
F1887.5
aF162.61017167568207
aI0
aI2499
aF611.5
aF2400.0
aF512.5
aF4419.919033935507
aF2532.4190339355073
aF1911.5
aF24.0
asa(dp613
g601
g611
sg603
(lp614
F4249.5
aF303.6051193475723
aI0
aI7052
aF2802.5
aF6069.478568944382
aF1819.9785689443815
aF13261.741372862325
aF9012.241372862325
aF4913.0
aF663.5
asa(dp615
g601
g611
sg603
(lp616
F13601.5
aF633.168608546257
aI1
aI23712
aF10110.5
aF19803.76796370838
aF6202.267963708378
aF54769.80147481739
aF41168.30147481739
aF16220.5
aF2619.0
asa(dp617
g601
g606
sg603
(lp618
F4007.5
aF451.6883796453476
aI1
aI8690
aF4682.5
aF7135.470078578568
aF3127.970078578568
aF22098.896836352695
aF18091.396836352695
aF5950.5
aF1943.0
asa(dp619
g601
g606
sg603
(lp620
F3929.5
aF449.2863587141037
aI1
aI8100
aF4170.5
aF6861.352450379054
aF2931.852450379054
aF19560.880379778
aF15631.380379777998
aF5556.5
aF1627.0
asa(dp621
g601
g602
sg603
(lp622
F4.5
aF8.242640614509583
aI0
aI12
aF7.5
aF5.999999120279199
aF1.499999120279199
aF16.66457956221105
aF12.164579562211049
aF4.5
aF0.0
asa(dp623
g601
g602
sg603
(lp624
F703.0
aF140.02438521385193
aI0
aI1394
aF691.0
aF1072.9998656606767
aF369.99986566067673
aF3007.9562646503387
aF2304.9562646503387
aF847.5
aF144.5
asa(dp625
g601
g602
sg603
(lp626
F306.0
aF73.94112491607666
aI0
aI493
aF187.0
aF407.88002548156874
aF101.88002548156874
aF1313.1686844730493
aF1007.1686844730493
aF335.0
aF29.0
asa(dp627
g601
g606
sg603
(lp628
F2840.0
aF250.7939372062683
aI0
aI4554
aF1714.0
aF3993.199968240224
aF1153.1999682402238
aF8643.904815939402
aF5803.904815939402
aF3350.5
aF510.5
asa(dp629
g601
g611
sg603
(lp630
F2251.0
aF181.33809351921082
aI0
aI3127
aF876.0
aF2882.999387451753
aF631.9993874517531
aF5885.967136019538
aF3634.967136019538
aF2298.0
aF47.0
asa(dp631
g601
g602
sg603
(lp632
F438.0
aF87.25483322143555
aI0
aI700
aF262.0
aF648.0
aF210.0
aF1442.8897174021188
aF1004.8897174021188
aF478.5
aF40.5
asa(dp633
g601
g606
sg603
(lp634
F740.5
aF195.722869515419
aI0
aI1872
aF1131.5
aF1711.707200535253
aF971.2072005352529
aF3796.1068918683245
aF3055.6068918683245
aF1315.0
aF574.5
asa(dp635
g601
g611
sg603
(lp636
F2369.0
aF216.6518018245697
aI0
aI4032
aF1663.0
aF3384.5325921326876
aF1015.5325921326876
aF9527.139893934516
aF7158.139893934516
aF2648.0
aF279.0
asa(dp637
g601
g602
sg603
(lp638
F77.0
aF32.97056245803833
aI0
aI121
aF44.0
aF97.99999428537922
aF20.999994285379216
aF194.55270568430942
aF117.55270568430942
aF79.0
aF2.0
asa(dp639
g601
g602
sg603
(lp640
F17.0
aF15.656854152679443
aI0
aI30
aF13.0
aF20.0
aF3.0
aF48.32727338013026
aF31.327273380130258
aF17.5
aF0.5
asa(dp641
g601
g602
sg603
(lp642
F142.5
aF61.35533845424652
aI0
aI400
aF257.5
aF226.82192306716752
aF84.32192306716752
aF1079.8647618240911
aF937.3647618240911
aF173.5
aF31.0
asa(dp643
g601
g602
sg603
(lp644
F145.5
aF63.69848430156708
aI0
aI375
aF229.5
aF260.7804569249711
aF115.28045692497108
aF1199.8496339127016
aF1054.3496339127016
aF181.5
aF36.0
asa(dp645
g601
g602
sg603
(lp646
F128.0
aF44.62741661071777
aI0
aI195
aF67.0
aF168.0
aF40.0
aF376.86193227301885
aF248.86193227301885
aF134.5
aF6.5
asa(dp647
g601
g602
sg603
(lp648
F3.5
aF8.242640614509583
aI0
aI12
aF8.5
aF5.999999109946202
aF2.4999991099462022
aF16.66457956221105
aF13.164579562211049
aF4.0
aF0.5
asa(dp649
g601
g606
sg603
(lp650
F601.5
aF111.9827550649643
aI0
aI1152
aF550.5
aF878.7692330911523
aF277.2692330911523
aF2408.031889317483
aF1806.531889317483
aF699.5
aF98.0
asa(dp651
g601
g611
sg603
(lp652
F6124.5
aF352.57568180561066
aI0
aI9870
aF3745.5
aF9120.223292427603
aF2995.723292427603
aF20115.771910276795
aF13991.271910276795
aF6827.0
aF702.5
asa(dp653
g601
g606
sg603
(lp654
F3158.5
aF397.88939011096954
aI1
aI7332
aF4173.5
aF6795.001547127729
aF3636.5015471277293
aF16231.273051048096
aF13072.773051048096
aF4423.5
aF1265.0
asa(dp655
g601
g602
sg603
(lp656
F117.5
aF62.041630148887634
aI0
aI336
aF218.5
aF230.79313333437312
aF113.29313333437312
aF1083.1975967947824
aF965.6975967947824
aF173.5
aF56.0
asa(dp657
g601
g606
sg603
(lp658
F1663.0
aF281.0782079696655
aI1
aI3392
aF1729.0
aF2974.999568100102
aF1311.999568100102
aF7040.783660708511
aF5377.783660708511
aF2336.0
aF673.0
asa(dp659
g601
g611
sg603
(lp660
F3442.0
aF231.82337474822998
aI0
aI4760
aF1318.0
aF4325.29446247514
aF883.2944624751399
aF9422.018413068763
aF5980.018413068763
aF3613.0
aF171.0
asa(dp661
g601
g602
sg603
(lp662
F56.0
aF37.455843687057495
aI0
aI168
aF112.0
aF76.99999213819319
aF20.999992138193193
aF403.2827530423689
aF347.2827530423689
aF66.0
aF10.0
asa(dp663
g601
g602
sg603
(lp664
F390.5
aF127.92387998104095
aI0
aI1640
aF1249.5
aF776.7579895574017
aF386.25798955740174
aF3972.835269957203
aF3582.335269957203
aF667.5
aF277.0
asa(dp665
g601
g606
sg603
(lp666
F1744.5
aF212.55129659175873
aI1
aI2652
aF907.5
aF2454.9226405715744
aF710.4226405715744
aF4891.519414158269
aF3147.019414158269
aF1929.5
aF185.0
asa(dp667
g601
g602
sg603
(lp668
F412.0
aF105.74011445045471
aI0
aI897
aF485.0
aF742.55189684371
aF330.55189684371
aF2466.3573549482226
aF2054.3573549482226
aF490.0
aF78.0
asa(dp669
g601
g602
sg603
(lp670
I0
aF0.0
aI0
aI1
aI1
aF0.0
aF0.0
aF6.283185307179586
aF6.283185307179586
aF0.0
aF0.0
asa(dp671
g601
g602
sg603
(lp672
F631.0
aF212.16652059555054
aI0
aI1682
aF1051.0
aF1596.0
aF965.0
aF5415.987536750775
aF4784.987536750775
aF1228.5
aF597.5
asa(dp673
g601
g606
sg603
(lp674
F1367.0
aF193.48022890090942
aI1
aI2142
aF775.0
aF2037.385583900963
aF670.385583900963
aF4207.805902005555
aF2840.8059020055553
aF1563.5
aF196.5
asa(dp675
g601
g602
sg603
(lp676
F8.0
aF12.828427076339722
aI0
aI20
aF12.0
aF12.0
aF4.0
aF41.66144712038661
aF33.66144712038661
aF9.0
aF1.0
asa(dp677
g601
g611
sg603
(lp678
F2747.0
aF202.16652059555054
aI0
aI3776
aF1029.0
aF3582.330865158292
aF835.330865158292
aF7692.3692762276805
aF4945.3692762276805
aF2828.0
aF81.0
asa(dp679
g601
g602
sg603
(lp680
F299.0
aF73.11269783973694
aI0
aI435
aF136.0
aF392.0
aF93.0
aF1333.1662368479913
aF1034.1662368479913
aF318.5
aF19.5
asa(dp681
g601
g606
sg603
(lp682
F6793.0
aF523.1025931835175
aI0
aI16335
aF9542.0
aF12915.137184976134
aF6122.137184976134
aF42670.905090859305
aF35877.905090859305
aF9736.0
aF2943.0
asa(dp683
g601
g602
sg603
(lp684
F29.5
aF34.38477599620819
aI0
aI132
aF102.5
aF57.50000300607462
aF28.00000300607462
aF368.2871793690065
aF338.7871793690065
aF42.5
aF13.0
asa(dp685
g601
g611
sg603
(lp686
F3809.0
aF246.93607258796692
aI0
aI5694
aF1885.0
aF5090.954858743004
aF1281.9548587430036
aF9992.167335440201
aF6183.167335440201
aF3999.0
aF190.0
asa(dp687
g601
g606
sg603
(lp688
F2379.5
aF331.4629839658737
aI1
aI6216
aF3836.5
aF4280.86559227074
aF1901.3655922707403
aF16139.64384509901
aF13760.14384509901
aF3468.0
aF1088.5
asa(dp689
g601
g606
sg603
(lp690
F1673.5
aF232.20815074443817
aI1
aI2773
aF1099.5
aF2559.735090448463
aF886.2350904484629
aF5862.066572970913
aF4188.566572970913
aF1985.0
aF311.5
asa(dp691
g601
g611
sg603
(lp692
F3667.5
aF280.20815074443817
aI0
aI5832
aF2164.5
aF5331.999977851054
aF1664.4999778510537
aF13311.664192518847
aF9644.164192518847
aF4216.0
aF548.5
asa(dp693
g601
g602
sg603
(lp694
F141.0
aF56.76955199241638
aI0
aI352
aF211.0
aF190.7647453028294
aF49.7647453028294
aF936.5493499509377
aF795.5493499509377
aF156.5
aF15.5
asa(dp695
g601
g602
sg603
(lp696
F37.5
aF29.55634891986847
aI0
aI99
aF61.5
aF55.23712511130179
aF17.737125111301793
aF226.6382567067193
aF189.1382567067193
aF45.0
aF7.5
asa(dp697
g601
g606
sg603
(lp698
F2548.5
aF207.23758828639984
aI0
aI4012
aF1463.5
aF3535.151681419986
aF986.6516814199858
aF9146.085421386377
aF6597.585421386377
aF2653.0
aF104.5
asa(dp699
g601
g606
sg603
(lp700
F1242.5
aF234.69343197345734
aI0
aI3132
aF1889.5
aF2609.1136064080492
aF1366.6136064080492
aF6147.151510271769
aF4904.651510271769
aF2019.5
aF777.0
asa(dp701
g601
g602
sg603
(lp702
F218.5
aF65.35533845424652
aI0
aI425
aF206.5
aF270.43902561465075
aF51.939025614650745
aF1041.536139435441
aF823.0361394354411
aF235.0
aF16.5
asa(dp703
g601
g602
sg603
(lp704
F166.5
aF68.38477599620819
aI0
aI300
aF133.5
aF238.96555495088796
aF72.46555495088796
aF1403.1575899096536
aF1236.6575899096536
aF189.5
aF23.0
asa(dp705
g601
g602
sg603
(lp706
F9028.5
aF718.080295920372
aI1
aI20412
aF11383.5
aF19675.774486153387
aF10647.274486153387
aF63067.097883366194
aF54038.597883366194
aF14060.5
aF5032.0
asa(dp707
g601
g602
sg603
(lp708
I0
aF0.0
aI0
aI1
aI1
aF0.0
aF0.0
aF6.283185307179586
aF6.283185307179586
aF0.0
aF0.0
asa(dp709
g601
g602
sg603
(lp710
F142.5
aF64.66904675960541
aI0
aI483
aF340.5
aF212.50507265952365
aF70.00507265952365
aF1333.1662368479913
aF1190.6662368479913
aF163.5
aF21.0
asa(dp711
g601
g602
sg603
(lp712
F4.0
aF8.828427076339722
aI0
aI12
aF8.0
aF6.0
aF2.0
aF25.132741228718345
aF21.132741228718345
aF4.5
aF0.5
asa(dp713
g601
g602
sg603
(lp714
F0.5
aF3.414213538169861
aI0
aI4
aF3.5
aF0.9999997971840742
aF0.49999979718407417
aF6.283185307179586
aF5.783185307179586
aF0.5
aF0.0
asa(dp715
g601
g602
sg603
(lp716
F691.5
aF104.81118214130402
aI0
aI1110
aF418.5
aF929.6231832396006
aF238.12318323960062
aF2294.712693387263
aF1603.2126933872628
aF715.0
aF23.5
asa(dp717
g601
g606
sg603
(lp718
F1991.0
aF168.5096664428711
aI0
aI2750
aF759.0
aF2518.49988488268
aF527.4998848826799
aF4966.043792165176
aF2975.0437921651755
aF2024.5
aF33.5
asa(dp719
g601
g611
sg603
(lp720
F7909.5
aF339.6051193475723
aI0
aI10812
aF2902.5
aF9993.90354747232
aF2084.4035474723205
aF19823.488143240404
aF11913.988143240404
aF8054.0
aF144.5
asa(dp721
g601
g602
sg603
(lp722
F34.5
aF24.727921843528748
aI0
aI72
aF37.5
aF50.39999559431999
aF15.89999559431999
aF148.31472920974863
aF113.81472920974863
aF37.5
aF3.0
asa(dp723
g601
g611
sg603
(lp724
F2396.0
aF184.85281229019165
aI0
aI3132
aF736.0
aF3021.0
aF625.0
aF6260.882553176498
aF3864.882553176498
aF2429.0
aF33.0
asa(dp725
g601
g606
sg603
(lp726
F1011.5
aF127.9827550649643
aI0
aI1457
aF445.5
aF1296.2998742876225
aF284.7998742876225
aF3527.8910715663587
aF2516.3910715663587
aF1046.5
aF35.0
asa(dp727
g601
g602
sg603
(lp728
F77.5
aF55.35533845424652
aI0
aI322
aF244.5
aF152.81952982011717
aF75.31952982011717
aF1008.2069714009723
aF930.7069714009723
aF89.5
aF12.0
asa(dp729
g601
g602
sg603
(lp730
F9.5
aF12.242640614509583
aI0
aI20
aF10.5
aF12.0
aF2.5
aF33.329154197452766
aF23.829154197452766
aF10.0
aF0.5
asa(dp731
g601
g606
sg603
(lp732
F1174.5
aF173.4385987520218
aI0
aI1886
aF711.5
aF1719.7539698281034
aF545.2539698281034
aF3749.607287405542
aF2575.107287405542
aF1387.5
aF213.0
asa(dp733
g601
g606
sg603
(lp734
F1340.0
aF190.16652059555054
aI0
aI2709
aF1369.0
aF2189.149264260428
aF849.149264260428
aF7082.445030607654
aF5742.445030607654
aF1698.5
aF358.5
asa(dp735
g601
g611
sg603
(lp736
F2293.0
aF201.68123936653137
aI0
aI3190
aF897.0
aF2816.4319261849596
aF523.4319261849596
aF6914.133935526548
aF4621.133935526548
aF2512.5
aF219.5
asa(dp737
g601
g602
sg603
(lp738
F825.0
aF119.0538227558136
aI0
aI1368
aF543.0
aF1159.5613170688011
aF334.56131706880115
aF3082.946990122717
aF2257.946990122717
aF881.5
aF56.5
asa(dp739
g601
g602
sg603
(lp740
F429.0
aF82.08326029777527
aI0
aI696
aF267.0
aF556.5605784456711
aF127.56057844567113
aF1318.9721211550816
aF889.9721211550816
aF452.0
aF23.0
asa(dp741
g601
g602
sg603
(lp742
F1211.0
aF333.7056245803833
aI0
aI6324
aF5113.0
aF4469.018721815664
aF3258.0187218156643
aF26171.719571530375
aF24960.719571530375
aF2981.5
aF1770.5
asa(dp743
g601
g602
sg603
(lp744
F74.5
aF40.870057225227356
aI0
aI192
aF117.5
aF99.99998983365003
aF25.499989833650034
aF541.5987451499133
aF467.09874514991327
aF77.0
aF2.5
asa(dp745
g601
g606
sg603
(lp746
F1823.0
aF236.93607258796692
aI1
aI3240
aF1417.0
aF2622.999516904165
aF799.9995169041649
aF6445.844889392109
aF4622.844889392109
aF2129.0
aF306.0
asa(dp747
g601
g602
sg603
(lp748
F12.0
aF13.656854152679443
aI0
aI25
aF13.0
aF16.0
aF4.0
aF42.5128897608302
aF30.5128897608302
aF12.5
aF0.5
asa(dp749
g601
g611
sg603
(lp750
F1703.0
aF161.1959581375122
aI0
aI2420
aF717.0
aF2198.4588029368606
aF495.4588029368606
aF4886.054476851203
aF3183.0544768512027
aF1758.5
aF55.5
asa(dp751
g601
g606
sg603
(lp752
F2299.5
aF224.55129659175873
aI1
aI3420
aF1120.5
aF2984.0884685509955
aF684.5884685509955
aF6386.424518254914
aF4086.924518254914
aF2494.5
aF195.0
asa(dp753
g601
g602
sg603
(lp754
F16.5
aF15.899494767189026
aI0
aI36
aF19.5
aF20.999997426739355
aF4.499997426739355
aF48.72654293870036
aF32.22654293870036
aF17.5
aF1.0
asa(dp755
g601
g606
sg603
(lp756
F1837.5
aF285.11983811855316
aI1
aI3894
aF2056.5
aF3351.4870337045722
aF1513.9870337045722
aF7324.173343311182
aF5486.673343311182
aF2646.0
aF808.5
asa(dp757
g601
g602
sg603
(lp758
I0
aF6.0
aI0
aI4
aI4
aF0.0
aF0.0
aF14.998119574667127
aF14.998119574667127
aF0.0
aF0.0
asa(dp759
g601
g606
sg603
(lp760
F985.5
aF168.2670258283615
aI1
aI1665
aF679.5
aF1439.9355053891486
aF454.4355053891486
aF3392.9077256861583
aF2407.4077256861583
aF1162.5
aF177.0
asa(dp761
g601
g602
sg603
(lp762
F54.5
aF41.21320307254791
aI0
aI170
aF115.5
aF119.53845997189637
aF65.03845997189637
aF453.276468310737
aF398.776468310737
aF76.0
aF21.5
asa(dp763
g601
g606
sg603
(lp764
F2187.0
aF311.4213538169861
aI1
aI3835
aF1648.0
aF3611.953326414252
aF1424.953326414252
aF7920.673315891208
aF5733.673315891208
aF2991.5
aF804.5
asa(dp765
g601
g602
sg603
(lp766
F19.5
aF25.55634891986847
aI0
aI80
aF60.5
aF31.78378401212285
aF12.283784012122851
aF216.63951554407302
aF197.13951554407302
aF25.0
aF5.5
asa(dp767
g601
g606
sg603
(lp768
F2074.5
aF232.20815074443817
aI1
aI3540
aF1465.5
aF2922.6972009212477
aF848.1972009212477
aF7394.07263423939
aF5319.57263423939
aF2411.5
aF337.0
asa(dp769
g601
g606
sg603
(lp770
F836.5
aF205.0365778207779
aI0
aI2242
aF1405.5
aF1877.5808997618587
aF1041.0808997618587
aF5646.439016671604
aF4809.939016671604
aF1552.5
aF716.0
asa(dp771
g601
g611
sg603
(lp772
F2070.5
aF173.09545290470123
aI0
aI2856
aF785.5
aF2627.999605915742
aF557.499605915742
aF5202.297077226796
aF3131.7970772267963
aF2108.0
aF37.5
asa(dp773
g601
g611
sg603
(lp774
F3704.5
aF334.97770273685455
aI0
aI7956
aF4251.5
aF6297.827682708768
aF2593.3276827087684
aF19530.887161539682
aF15826.387161539682
aF4485.5
aF781.0
asa(dp775
g601
g606
sg603
(lp776
F2166.5
aF224.89444243907928
aI1
aI3477
aF1310.5
aF2978.742192587815
aF812.2421925878152
aF6336.561305069287
aF4170.061305069287
aF2432.5
aF266.0
asa(dp777
g601
g602
sg603
(lp778
F1.0
aF4.828427076339722
aI0
aI6
aF5.0
aF1.4999997800697997
aF0.4999997800697997
aF8.332288549363192
aF7.3322885493631915
aF1.0
aF0.0
asa(dp779
g601
g606
sg603
(lp780
F1433.0
aF173.68123936653137
aI0
aI2623
aF1190.0
aF1873.4205223851168
aF440.4205223851168
aF6480.8547631121155
aF5047.8547631121155
aF1487.5
aF54.5
asa(dp781
g601
g611
sg603
(lp782
F3350.0
aF232.45079135894775
aI0
aI5056
aF1706.0
aF4558.951602102985
aF1208.951602102985
aF10416.760862671106
aF7066.760862671106
aF3505.5
aF155.5
asa(dp783
g601
g602
sg603
(lp784
F204.0
aF70.42640614509583
aI0
aI513
aF309.0
aF294.99996952785295
aF90.99996952785295
aF1416.4892843565538
aF1212.4892843565538
aF226.5
aF22.5
asa(dp785
g601
g606
sg603
(lp786
F848.5
aF190.40916121006012
aI1
aI1760
aF911.5
aF1556.809284119372
aF708.309284119372
aF3330.9235815577567
aF2482.4235815577567
aF1181.5
aF333.0
asa(dp787
g601
g602
sg603
(lp788
F76.5
aF35.55634891986847
aI0
aI120
aF43.5
aF98.0
aF21.5
aF326.6257367832048
aF250.1257367832048
aF79.5
aF3.0
asa(dp789
g601
g606
sg603
(lp790
F1970.0
aF184.99494767189026
aI0
aI3036
aF1066.0
aF2841.1131919320032
aF871.1131919320032
aF7707.368264600962
aF5737.368264600962
aF2109.5
aF139.5
asa(dp791
g601
g602
sg603
(lp792
F108.5
aF45.21320307254791
aI0
aI198
aF89.5
aF153.6999681717134
aF45.19996817171341
aF483.2727680054788
aF374.7727680054788
aF121.5
aF13.0
asa(dp793
g601
g602
sg603
(lp794
F13.0
aF18.485281229019165
aI0
aI42
aF29.0
aF20.399996206124115
aF7.399996206124115
aF101.65393745009555
aF88.65393745009555
aF16.5
aF3.5
asa(dp795
g601
g606
sg603
(lp796
F1354.5
aF181.78174459934235
aI0
aI2496
aF1141.5
aF2242.8002423010184
aF888.3002423010184
aF5232.439624721895
aF3877.9396247218947
aF1692.5
aF338.0
asa(dp797
g601
g602
sg603
(lp798
I0
aF0.0
aI0
aI1
aI1
aF0.0
aF0.0
aF6.283185307179586
aF6.283185307179586
aF0.0
aF0.0
asa(dp799
g601
g602
sg603
(lp800
F50.5
aF32.041630148887634
aI0
aI132
aF81.5
aF62.999993628916855
aF12.499993628916855
aF276.6747255684376
aF226.17472556843762
aF54.0
aF3.5
asa(dp801
g601
g602
sg603
(lp802
F1000.5
aF121.15432798862457
aI0
aI1368
aF367.5
aF1284.8524755856488
aF284.3524755856488
aF2537.305979436356
aF1536.8059794363562
aF1030.5
aF30.0
asa(dp803
g601
g611
sg603
(lp804
F2110.0
aF176.5096664428711
aI0
aI2958
aF848.0
aF2749.127176183043
aF639.127176183043
aF5895.927756629813
aF3785.9277566298133
aF2175.0
aF65.0
asa(dp805
g601
g602
sg603
(lp806
F8.0
aF12.828427076339722
aI0
aI20
aF12.0
aF12.0
aF4.0
aF41.66144712038661
aF33.66144712038661
aF9.0
aF1.0
asa(dp807
g601
g602
sg603
(lp808
F6.0
aF9.656854152679443
aI0
aI16
aF10.0
aF7.999998377472593
aF1.9999983774725933
aF25.132741228718345
aF19.132741228718345
aF6.0
aF0.0
asa(dp809
g601
g602
sg603
(lp810
F5.0
aF11.656854152679443
aI0
aI20
aF15.0
aF9.692308768144358
aF4.692308768144358
aF41.66144712038661
aF36.66144712038661
aF6.0
aF1.0
asa(dp811
g601
g602
sg603
(lp812
F44.0
aF47.94112491607666
aI0
aI255
aF211.0
aF119.90589030232513
aF75.90589030232513
aF753.2389033661609
aF709.2389033661609
aF68.0
aF24.0
asa(dp813
g601
g602
sg603
(lp814
F125.0
aF42.62741661071777
aI0
aI195
aF70.0
aF159.99998373384005
aF34.999983733840054
aF368.2871793690065
aF243.28717936900648
aF129.0
aF4.0
asa(dp815
g601
g602
sg603
(lp816
I0
aF2.0
aI0
aI2
aI2
aF0.0
aF0.0
aF6.283185307179586
aF6.283185307179586
aF0.0
aF0.0
asa(dp817
g601
g606
sg603
(lp818
F1814.0
aF240.59292674064636
aI1
aI3080
aF1266.0
aF2596.0847286637872
aF782.0847286637872
aF5180.136482828312
aF3366.136482828312
aF2135.0
aF321.0
asa(dp819
g601
g611
sg603
(lp820
F1989.5
aF172.75230705738068
aI0
aI2916
aF926.5
aF2387.8464456408983
aF398.3464456408983
aF5328.180216842765
aF3338.680216842765
aF2039.0
aF49.5
asa(dp821
g601
g602
sg603
(lp822
F1689.5
aF158.95331752300262
aI0
aI2279
aF589.5
aF2181.317500841804
aF491.81750084180385
aF4901.052582366681
aF3211.5525823666812
aF1730.5
aF41.0
asa(dp823
g601
g602
sg603
(lp824
F101.0
aF39.455843687057495
aI0
aI182
aF81.0
aF123.49997646951942
aF22.499976469519424
aF341.62388707496564
aF240.62388707496564
aF105.5
aF4.5
asa(dp825
g601
g602
sg603
(lp826
F36.5
aF25.55634891986847
aI0
aI81
aF44.5
aF48.99999242224294
aF12.49999242224294
aF166.64578848154645
aF130.14578848154645
aF38.5
aF2.0
asa(dp827
g601
g602
sg603
(lp828
F6.0
aF10.0
aI0
aI12
aF6.0
aF6.0
aF0.0
aF21.663950362321877
aF15.663950362321877
aF6.0
aF0.0
asa(dp829
g601
g602
sg603
(lp830
F15.0
aF24.14213538169861
aI0
aI66
aF51.0
aF28.799999310308976
aF13.799999310308976
aF193.30909352052103
aF178.30909352052103
aF18.5
aF3.5
asa(dp831
g601
g606
sg603
(lp832
F1346.0
aF178.02438521385193
aI0
aI2491
aF1145.0
aF2199.599584270036
aF853.5995842700358
aF4895.865328887953
aF3549.865328887953
aF1763.0
aF417.0
asa(dp833
g601
g602
sg603
(lp834
F85.5
aF37.21320307254791
aI0
aI156
aF70.5
aF109.99999724638474
aF24.499997246384737
aF346.62320579715004
aF261.12320579715004
aF89.0
aF3.5
asa(dp835
g601
g606
sg603
(lp836
F1195.5
aF140.95331752300262
aI0
aI1892
aF696.5
aF1540.80869509076
aF345.30869509076
aF3761.1949152807547
aF2565.6949152807547
aF1273.0
aF77.5
asa(dp837
g601
g602
sg603
(lp838
I0
aF2.0
aI0
aI2
aI2
aF0.0
aF0.0
aF6.283185307179586
aF6.283185307179586
aF0.0
aF0.0
asa(dp839
g601
g606
sg603
(lp840
F1177.0
aF239.62236428260803
aI1
aI2444
aF1267.0
aF2261.000346463843
aF1084.000346463843
aF4920.476758787585
aF3743.476758787585
aF1689.5
aF512.5
asa(dp841
g601
g602
sg603
(lp842
F590.0
aF145.53910398483276
aI1
aI960
aF370.0
aF897.0794062421191
aF307.07940624211915
aF1897.5156991983722
aF1307.5156991983722
aF732.0
aF142.0
asa(dp843
g601
g602
sg603
(lp844
F1013.0
aF129.39696860313416
aI0
aI1488
aF475.0
aF1361.9742281923463
aF348.97422819234635
aF3816.1883275015234
aF2803.1883275015234
aF1064.0
aF51.0
asa(dp845
g601
g602
sg603
(lp846
F809.0
aF171.33809351921082
aI0
aI1813
aF1004.0
aF1329.9574093247793
aF520.9574093247793
aF4321.125205726231
aF3512.125205726231
aF1071.5
aF262.5
asa(dp847
g601
g602
sg603
(lp848
F6.0
aF10.0
aI0
aI12
aF6.0
aF6.0
aF0.0
aF21.663950362321877
aF15.663950362321877
aF6.0
aF0.0
asa(dp849
g601
g611
sg603
(lp850
F4766.5
aF338.97770273685455
aI0
aI7140
aF2373.5
aF6922.906181555707
aF2156.406181555707
aF14349.728518378311
aF9583.228518378311
aF5653.0
aF886.5
asa(dp851
g601
g602
sg603
(lp852
I0
aF2.0
aI0
aI2
aI2
aF0.0
aF0.0
aF6.283185307179586
aF6.283185307179586
aF0.0
aF0.0
asa(dp853
g601
g602
sg603
(lp854
I0
aF2.0
aI0
aI2
aI2
aF0.0
aF0.0
aF6.283185307179586
aF6.283185307179586
aF0.0
aF0.0
asa(dp855
g601
g602
sg603
(lp856
F2913.5
aF211.37972366809845
aI0
aI4288
aF1374.5
aF3640.551683118916
aF727.0516831189161
aF7516.762013880332
aF4603.262013880332
aF3011.5
aF98.0
asa(dp857
g601
g602
sg603
(lp858
F44.0
aF26.97056245803833
aI0
aI90
aF46.0
aF52.49999592707172
aF8.499995927071723
aF194.97559498530052
aF150.97559498530052
aF45.0
aF1.0
asa(dp859
g601
g602
sg603
(lp860
F56.5
aF27.55634891986847
aI0
aI90
aF33.5
aF65.99999538069278
aF9.49999538069278
aF149.9811941030662
aF93.4811941030662
aF56.5
aF0.0
asa(dp861
g601
g602
sg603
(lp862
F19.0
aF68.48528122901917
aI0
aI136
aF117.0
aF69.23762651403922
aF50.23762651403922
aF1829.7706422591828
aF1810.7706422591828
aF38.0
aF19.0
asa(dp863
g601
g602
sg603
(lp864
F342.5
aF92.87005722522736
aI0
aI520
aF177.5
aF467.3007830802817
aF124.80078308028169
aF2549.6807904129505
aF2207.1807904129505
aF366.5
aF24.0
asa(dp865
g601
g606
sg603
(lp866
F1394.0
aF164.99494767189026
aI0
aI2538
aF1144.0
aF2035.8793184530077
aF641.8793184530077
aF5462.85300653702
aF4068.8530065370196
aF1551.5
aF157.5
asa(dp867
g601
g602
sg603
(lp868
F18.5
aF15.899494767189026
aI0
aI36
aF17.5
aF20.999997426739355
aF2.4999974267393554
aF49.31201174052312
aF30.81201174052312
aF18.5
aF0.0
asa(dp869
g601
g606
sg603
(lp870
F3098.5
aF331.8061298131943
aI1
aI6231
aF3132.5
aF5329.523070604715
aF2231.023070604715
aF15424.734146892933
aF12326.234146892933
aF3973.5
aF875.0
asa(dp871
g601
g602
sg603
(lp872
F595.5
aF91.84061968326569
aI0
aI812
aF216.5
aF756.0
aF160.5
aF1482.5934791676607
aF887.0934791676607
aF609.0
aF13.5
asa(dp873
g601
g602
sg603
(lp874
F175.0
aF55.455843687057495
aI0
aI280
aF105.0
aF247.0
aF72.0
aF736.5743969373156
aF561.5743969373156
aF186.0
aF11.0
asa(dp875
g601
g606
sg603
(lp876
F1418.0
aF152.5096664428711
aI0
aI2300
aF882.0
aF1707.2000422833953
aF289.2000422833953
aF4082.8216767200397
aF2664.8216767200397
aF1498.5
aF80.5
asa(dp877
g601
g602
sg603
(lp878
F536.0
aF115.39696860313416
aI0
aI1015
aF479.0
aF899.9999995400431
aF363.99999954004306
aF1968.0868280966768
aF1432.0868280966768
aF677.0
aF141.0
asa(dp879
g601
g602
sg603
(lp880
F4.0
aF11.656854152679443
aI0
aI20
aF16.0
aF6.599999788633795
aF2.599999788633795
aF41.66144712038661
aF37.66144712038661
aF5.5
aF1.5
asa(dp881
g601
g602
sg603
(lp882
F22.5
aF19.071067690849304
aI0
aI42
aF19.5
aF30.0
aF7.5
aF86.65580144928751
aF64.15580144928751
aF23.5
aF1.0
asa(dp883
g601
g602
sg603
(lp884
F120.0
aF62.62741661071777
aI0
aI325
aF205.0
aF209.9999755386043
aF89.9999755386043
aF1199.8496339127016
aF1079.8496339127016
aF156.0
aF36.0
asa(dp885
g601
g611
sg603
(lp886
F3347.0
aF236.1076455116272
aI0
aI5056
aF1709.0
aF4653.663923038985
aF1306.6639230389846
aF10889.132178654643
aF7542.132178654643
aF3569.5
aF222.5
asa(dp887
g601
g602
sg603
(lp888
F979.0
aF151.0538227558136
aI0
aI1674
aF695.0
aF1431.1355638196692
aF452.1355638196692
aF5549.30511709912
aF4570.30511709912
aF1155.0
aF176.0
asa(dp889
g601
g602
sg603
(lp890
F48.0
aF26.14213538169861
aI0
aI80
aF32.0
aF59.9999972719379
aF11.9999972719379
aF149.9811941030662
aF101.9811941030662
aF49.0
aF1.0
asa(dp891
g601
g606
sg603
(lp892
F1749.0
aF297.90663504600525
aI1
aI3420
aF1671.0
aF3066.3085919506266
aF1317.3085919506266
aF6306.11648739668
aF4557.11648739668
aF2466.5
aF717.5
asa(dp893
g601
g602
sg603
(lp894
F3.0
aF6.828427076339722
aI0
aI9
aF6.0
aF4.0
aF1.0
aF25.132741228718345
aF22.132741228718345
aF3.0
aF0.0
asa(dp895
g601
g602
sg603
(lp896
F579.5
aF110.32590091228485
aI0
aI1044
aF464.5
aF910.7999472802767
aF331.2999472802767
aF2922.967069553247
aF2343.467069553247
aF669.0
aF89.5
asa(dp897
g601
g611
sg603
(lp898
F3519.5
aF397.4041088819504
aI0
aI7410
aF3890.5
aF6892.209475684329
aF3372.709475684329
aF17951.083762489237
aF14431.583762489237
aF5075.5
aF1556.0
asa(dp899
g601
g606
sg603
(lp900
F1021.5
aF219.37972366809845
aI0
aI2166
aF1144.5
aF1986.0361058314447
aF964.5361058314447
aF5227.677834025216
aF4206.177834025216
aF1495.0
aF473.5
asa(dp901
g601
g606
sg603
(lp902
F2701.5
aF203.5807341337204
aI0
aI3648
aF946.5
aF3528.0
aF826.5
aF7661.276828396597
aF4959.776828396597
aF2791.5
aF90.0
asa(dp903
g601
g602
sg603
(lp904
F23.5
aF19.899494767189026
aI0
aI48
aF24.5
aF30.599996121794447
aF7.099996121794447
aF96.65455591911952
aF73.15455591911952
aF25.0
aF1.5
asa(dp905
g601
g602
sg603
(lp906
F306.0
aF73.94112491607666
aI0
aI493
aF187.0
aF407.88002548156874
aF101.88002548156874
aF1313.1686844730493
aF1007.1686844730493
aF335.0
aF29.0
asa(dp907
g601
g606
sg603
(lp908
F3519.5
aF397.4041088819504
aI0
aI7410
aF3890.5
aF6892.209475684329
aF3372.709475684329
aF17951.083762489237
aF14431.583762489237
aF5075.5
aF1556.0
asa(dp909
g601
g606
sg603
(lp910
F2421.5
aF264.69343197345734
aI1
aI3906
aF1484.5
aF3679.762928938493
aF1258.2629289384931
aF7644.443261828215
aF5222.943261828215
aF2802.5
aF381.0
asa(dp911
g601
g602
sg603
(lp912
F348.0
aF94.91168737411499
aI0
aI780
aF432.0
aF622.1998622156134
aF274.1998622156134
aF1535.4300977446085
aF1187.4300977446085
aF474.5
aF126.5
asa(dp913
g601
g602
sg603
(lp914
F9.5
aF12.242640614509583
aI0
aI20
aF10.5
aF12.0
aF2.5
aF31.474916414641733
aF21.974916414641733
aF10.0
aF0.5
asa(dp915
g601
g606
sg603
(lp916
F1671.0
aF291.22034335136414
aI0
aI3402
aF1731.0
aF3227.28079065535
aF1556.2807906553498
aF6830.997409620313
aF5159.997409620313
aF2442.5
aF771.5
asa(dp917
g601
g606
sg603
(lp918
F644.0
aF194.16652059555054
aI0
aI1443
aF799.0
aF1368.0
aF724.0
aF2966.294664492209
aF2322.294664492209
aF1102.5
aF458.5
asa(dp919
g601
g606
sg603
(lp920
F1630.0
aF264.3919162750244
aI1
aI3186
aF1556.0
aF2697.499928489051
aF1067.499928489051
aF6217.470069560028
aF4587.470069560028
aF2150.0
aF520.0
asa(dp921
g601
g606
sg603
(lp922
F1597.0
aF151.53910398483276
aI0
aI2162
aF565.0
aF2039.9996794688632
aF442.9996794688632
aF3771.7415394431955
aF2174.7415394431955
aF1629.5
aF32.5
asa(dp923
g601
g606
sg603
(lp924
F1486.0
aF152.71067690849304
aI0
aI2068
aF582.0
aF1958.962769668462
aF472.962769668462
aF4110.8355503326975
aF2624.8355503326975
aF1567.0
aF81.0
asa(dp925
g601
g602
sg603
(lp926
F14.5
aF14.242640614509583
aI0
aI25
aF10.5
aF16.0
aF1.5
aF42.51126877382387
aF28.011268773823872
aF14.5
aF0.0
asa(dp927
g601
g602
sg603
(lp928
F84.0
aF33.79898953437805
aI0
aI132
aF48.0
aF97.99999428537922
aF13.999994285379216
aF213.31464201927068
aF129.31464201927068
aF84.5
aF0.5
asa(dp929
g601
g606
sg603
(lp930
F2059.5
aF209.722869515419
aI0
aI3300
aF1240.5
aF3078.9565045840573
aF1019.4565045840573
aF7415.73772466411
aF5356.23772466411
aF2370.0
aF310.5
asa(dp931
g601
g606
sg603
(lp932
F2116.5
aF176.75230705738068
aI0
aI2900
aF783.5
aF2766.049953172769
aF649.5499531727692
aF5703.158246556314
aF3586.658246556314
aF2162.5
aF46.0
asa(dp933
g601
g611
sg603
(lp934
F2247.5
aF185.5807341337204
aI0
aI3233
aF985.5
aF2947.5606092834787
aF700.0606092834787
aF6880.804071394553
aF4633.304071394553
aF2322.5
aF75.0
asa(dp935
g601
g602
sg603
(lp936
F363.5
aF137.78174459934235
aI0
aI1224
aF860.5
aF1051.9848494074322
aF688.4848494074322
aF4301.127425041939
aF3937.627425041939
aF800.5
aF437.0
asa(dp937
g601
g606
sg603
(lp938
F1712.0
aF160.02438521385193
aI0
aI2450
aF738.0
aF2258.6194950643694
aF546.6194950643694
aF4690.916159350338
aF2978.9161593503377
aF1763.0
aF51.0
asa(dp939
g601
g602
sg603
(lp940
F2.5
aF7.414213538169861
aI0
aI8
aF5.5
aF3.0
aF0.5
aF16.66457956221105
aF14.164579562211049
aF2.5
aF0.0
asa(dp941
g601
g606
sg603
(lp942
F1687.0
aF230.7939372062683
aI0
aI3150
aF1463.0
aF2928.3436223676836
aF1241.3436223676836
aF7949.00296009186
aF6262.00296009186
aF2122.0
aF435.0
asa(dp943
g601
g606
sg603
(lp944
F835.0
aF143.53910398483276
aI0
aI1702
aF867.0
aF1407.5999389692151
aF572.5999389692151
aF4235.278754209266
aF3400.2787542092656
aF1092.0
aF257.0
asa(dp945
g601
g602
sg603
(lp946
F3118.0
aF387.78888487815857
aI1
aI6432
aF3314.0
aF5575.199522091716
aF2457.199522091716
aF15146.435273171777
aF12028.435273171777
aF4080.0
aF962.0
asa(dp947
g601
g611
sg603
(lp948
F3141.0
aF214.30865597724915
aI0
aI4340
aF1199.0
aF4132.49935320986
aF991.4993532098597
aF8286.323374622125
aF5145.323374622125
aF3201.5
aF60.5
asa(dp949
g601
g602
sg603
(lp950
F156.0
aF62.62741661071777
aI0
aI297
aF141.0
aF260.0
aF104.0
aF1128.1919883681776
aF972.1919883681776
aF185.5
aF29.5
asa(dp951
g601
g606
sg603
(lp952
F3424.5
aF225.722869515419
aI0
aI4745
aF1320.5
aF4500.791332942434
aF1076.2913329424337
aF8980.74863358033
aF5556.24863358033
aF3519.5
aF95.0
asa(dp953
g601
g602
sg603
(lp954
F1716.0
aF234.7939372062683
aI0
aI3871
aF2155.0
aF2862.7814456322812
aF1146.7814456322812
aF10220.384682398688
aF8504.384682398688
aF2430.0
aF714.0
asa(dp955
g601
g602
sg603
(lp956
F458.5
aF144.1248904466629
aI0
aI1365
aF906.5
aF1108.4616004312848
aF649.9616004312848
aF2573.011080393288
aF2114.511080393288
aF904.0
aF445.5
asa(dp957
g601
g602
sg603
(lp958
F31.5
aF28.727921843528748
aI0
aI88
aF56.5
aF49.80821933858351
aF18.308219338583513
aF248.30220437232518
aF216.80220437232518
aF37.0
aF5.5
asa(dp959
g601
g602
sg603
(lp960
F39.0
aF25.656854152679443
aI0
aI63
aF24.0
aF48.0
aF9.0
aF133.31661678981106
aF94.31661678981106
aF42.5
aF3.5
asa(dp961
g601
g606
sg603
(lp962
F3222.5
aF454.17366087436676
aI0
aI8094
aF4871.5
aF7729.540017532068
aF4507.040017532068
aF21518.97192298429
aF18296.47192298429
aF5513.0
aF2290.5
asa(dp963
g601
g602
sg603
(lp964
F548.0
aF94.08326029777527
aI0
aI806
aF258.0
aF744.3691328435671
aF196.36913284356706
aF1755.5830573141334
aF1207.5830573141334
aF583.0
aF35.0
asa(dp965
g601
g606
sg603
(lp966
F2606.0
aF208.3919162750244
aI0
aI4830
aF2224.0
aF3100.000106311636
aF494.00010631163605
aF8798.021145242647
aF6192.0211452426465
aF2696.0
aF90.0
asa(dp967
g601
g602
sg603
(lp968
F30.5
aF28.727921843528748
aI0
aI90
aF59.5
aF54.463420224283254
aF23.963420224283254
aF241.63638846024077
aF211.13638846024077
aF39.0
aF8.5
asa(dp969
g601
g606
sg603
(lp970
F2066.5
aF263.52185904979706
aI1
aI3185
aF1118.5
aF3020.4107536381343
aF953.9107536381343
aF6875.904702019238
aF4809.404702019238
aF2518.0
aF451.5
asa(dp971
g601
g602
sg603
(lp972
F159.5
aF56.5269113779068
aI0
aI342
aF182.5
aF213.64151591750124
aF54.14151591750124
aF721.6617268724979
aF562.1617268724979
aF183.5
aF24.0
asa(dp973
g601
g606
sg603
(lp974
F2597.0
aF232.93607258796692
aI1
aI3848
aF1251.0
aF3647.661246249918
aF1050.661246249918
aF8922.2155792791
aF6325.2155792791
aF2898.0
aF301.0
asa(dp975
g601
g602
sg603
(lp976
F161.0
aF73.5979790687561
aI0
aI525
aF364.0
aF348.6520348657614
aF187.65203486576138
aF1441.486042296542
aF1280.486042296542
aF247.0
aF86.0
asa(dp977
g601
g602
sg603
(lp978
F64.5
aF34.72792184352875
aI0
aI112
aF47.5
aF86.15384542749644
aF21.653845427496435
aF323.29282300535795
aF258.79282300535795
aF69.5
aF5.0
asa(dp979
g601
g602
sg603
(lp980
F8.0
aF10.828427076339722
aI0
aI16
aF8.0
aF9.0
aF1.0
aF25.132741228718345
aF17.132741228718345
aF8.0
aF0.0
asa(dp981
g601
g602
sg603
(lp982
F29.5
aF34.38477599620819
aI0
aI132
aF102.5
aF57.50000300607462
aF28.00000300607462
aF368.2871793690065
aF338.7871793690065
aF42.5
aF13.0
asa(dp983
g601
g602
sg603
(lp984
I0
aF4.0
aI0
aI3
aI3
aF0.0
aF0.0
aF6.665830922074279
aF6.665830922074279
aF0.0
aF0.0
asa(dp985
g601
g602
sg603
(lp986
F30.5
aF21.899494767189026
aI0
aI54
aF23.5
aF40.0
aF9.5
aF121.65141081936363
aF91.15141081936363
aF31.5
aF1.0
asa(dp987
g601
g611
sg603
(lp988
F7487.5
aF349.88939011096954
aI0
aI11628
aF4140.5
aF9641.607886289945
aF2154.107886289945
aF21452.233404621824
aF13964.733404621824
aF7957.0
aF469.5
asa(dp989
g601
g606
sg603
(lp990
F2315.5
aF249.0365778207779
aI1
aI3520
aF1204.5
aF3272.6183124152303
aF957.1183124152303
aF7372.951565021439
aF5057.451565021439
aF2733.5
aF418.0
asa(dp991
g601
g602
sg603
(lp992
F149.0
aF46.62741661071777
aI0
aI224
aF75.0
aF195.0
aF46.0
aF416.6144768570352
aF267.6144768570352
aF155.0
aF6.0
asa(dp993
g601
g606
sg603
(lp994
F1664.5
aF190.55129659175873
aI1
aI2808
aF1143.5
aF2083.9476085442584
aF419.4476085442584
aF5895.468878187113
aF4230.968878187113
aF1760.0
aF95.5
asa(dp995
g601
g602
sg603
(lp996
F1095.0
aF148.85281229019165
aI0
aI2064
aF969.0
aF1459.4458175543405
aF364.44581755434046
aF4217.323053969707
aF3122.323053969707
aF1221.0
aF126.0
asa(dp997
g601
g602
sg603
(lp998
F65.0
aF33.31370830535889
aI0
aI110
aF45.0
aF90.0
aF25.0
aF226.6382567067193
aF161.6382567067193
aF70.5
aF5.5
asa(dp999
g601
g602
sg603
(lp1000
F46.5
aF26.38477599620819
aI0
aI90
aF43.5
aF54.99999862319237
aF8.499998623192369
aF134.9830970020853
aF88.48309700208529
aF48.5
aF2.0
asa(dp1001
g601
g602
sg603
(lp1002
F136.0
aF48.62741661071777
aI0
aI228
aF92.0
aF198.0
aF62.0
aF554.9304606562164
aF418.9304606562164
aF146.0
aF10.0
asa(dp1003
g601
g602
sg603
(lp1004
F1211.0
aF333.7056245803833
aI0
aI6324
aF5113.0
aF4469.018721815664
aF3258.0187218156643
aF26171.719571530375
aF24960.719571530375
aF2981.5
aF1770.5
asa(dp1005
g601
g602
sg603
(lp1006
F1341.0
aF187.27921843528748
aI0
aI3712
aF2371.0
aF2181.1531569469953
aF840.1531569469953
aF8150.090360902392
aF6809.090360902392
aF1624.5
aF283.5
asa(dp1007
g601
g606
sg603
(lp1008
F888.5
aF154.95331752300262
aI0
aI1749
aF860.5
aF1657.3676040457212
aF768.8676040457212
aF4641.085129629693
aF3752.5851296296933
aF1139.0
aF250.5
asa(dp1009
g601
g606
sg603
(lp1010
F1350.0
aF176.5096664428711
aI1
aI2295
aF945.0
aF2007.556319266092
aF657.556319266092
aF5292.670108827774
aF3942.670108827774
aF1517.0
aF167.0
asa(dp1011
g601
g602
sg603
(lp1012
F335.5
aF121.84061968326569
aI0
aI1258
aF922.5
aF1111.5188505434198
aF776.0188505434198
aF2747.736960910585
aF2412.236960910585
aF672.5
aF337.0
asa(dp1013
g601
g602
sg603
(lp1014
F156.5
aF48.870057225227356
aI0
aI252
aF95.5
aF209.9999971952784
aF53.49999719527841
aF483.2727680054788
aF326.7727680054788
aF163.0
aF6.5
asa(dp1015
g601
g611
sg603
(lp1016
F17624.5
aF767.3351291418076
aI1
aI32005
aF14380.5
aF26734.29383680271
aF9109.79383680271
aF63051.87438436681
aF45427.37438436681
aF21832.5
aF4208.0
asa(dp1017
g601
g602
sg603
(lp1018
F176.5
aF66.87005722522736
aI0
aI391
aF214.5
aF319.99997458658254
aF143.49997458658254
aF920.7177813092317
aF744.2177813092317
aF233.0
aF56.5
asa(dp1019
g601
g602
sg603
(lp1020
I0
aF0.0
aI0
aI1
aI1
aF0.0
aF0.0
aF6.283185307179586
aF6.283185307179586
aF0.0
aF0.0
asa(dp1021
g601
g611
sg603
(lp1022
F3585.0
aF244.2497808933258
aI0
aI5740
aF2155.0
aF4655.564326339052
aF1070.564326339052
aF11815.186223926334
aF8230.186223926334
aF3791.5
aF206.5
asa(dp1023
g601
g602
sg603
(lp1024
F167.5
aF61.55634891986847
aI0
aI243
aF75.5
aF208.0
aF40.5
aF1133.1913014629204
aF965.6913014629204
aF179.0
aF11.5
asa(dp1025
g601
g602
sg603
(lp1026
F8.5
aF11.41421353816986
aI0
aI16
aF7.5
aF9.0
aF0.5
aF29.996239019827254
aF21.496239019827254
aF8.5
aF0.0
asa(dp1027
g601
g606
sg603
(lp1028
F1009.5
aF138.1248904466629
aI0
aI1833
aF823.5
aF1354.596721309892
aF345.096721309892
aF4352.788374814213
aF3343.288374814213
aF1114.5
aF105.0
asa(dp1029
g601
g606
sg603
(lp1030
F2386.0
aF320.04877042770386
aI1
aI3894
aF1508.0
aF3641.8107039160095
aF1255.8107039160095
aF7493.918319183682
aF5107.918319183682
aF2928.5
aF542.5
asa(dp1031
g601
g611
sg603
(lp1032
F2203.0
aF186.99494767189026
aI0
aI3180
aF977.0
aF2991.999830153247
aF788.9998301532469
aF6647.349973025264
aF4444.349973025264
aF2311.0
aF108.0
asa(dp1033
g601
g606
sg603
(lp1034
F2697.0
aF284.1076455116272
aI1
aI4092
aF1395.0
aF3825.0892508211837
aF1128.0892508211837
aF7734.180579032154
aF5037.180579032154
aF3130.5
aF433.5
asa(dp1035
g601
g602
sg603
(lp1036
F26.5
aF20.727921843528748
aI0
aI56
aF29.5
aF35.999997419073225
aF9.499997419073225
aF88.3222654670468
aF61.822265467046805
aF28.5
aF2.0
asa(dp1037
g601
g602
sg603
(lp1038
F655.0
aF114.22539567947388
aI0
aI1215
aF560.0
aF957.8823013305664
aF302.8823013305664
aF3286.254686823566
aF2631.254686823566
aF706.0
aF51.0
asa(dp1039
g601
g602
sg603
(lp1040
F183.0
aF53.455843687057495
aI0
aI273
aF90.0
aF240.0
aF57.0
aF673.2489443208888
aF490.24894432088877
aF189.0
aF6.0
asa(dp1041
g601
g602
sg603
(lp1042
F363.5
aF114.81118214130402
aI0
aI1054
aF690.5
aF744.5274318121301
aF381.0274318121301
aF2348.0388551368146
aF1984.5388551368146
aF602.5
aF239.0
asa(dp1043
g601
g602
sg603
(lp1044
F6.0
aF10.0
aI0
aI12
aF6.0
aF6.0
aF0.0
aF21.663950362321877
aF15.663950362321877
aF6.0
aF0.0
asa(dp1045
g601
g606
sg603
(lp1046
F1252.5
aF216.69343197345734
aI1
aI2436
aF1183.5
aF2144.9996833081677
aF892.4996833081677
aF5440.985071987301
aF4188.485071987301
aF1589.5
aF337.0
asa(dp1047
g601
g602
sg603
(lp1048
F4.0
aF8.828427076339722
aI0
aI12
aF8.0
aF6.0
aF2.0
aF21.663950362321877
aF17.663950362321877
aF4.5
aF0.5
asa(dp1049
g601
g602
sg603
(lp1050
F121.0
aF55.455843687057495
aI0
aI286
aF165.0
aF180.32197514670224
aF59.32197514670224
aF736.5743969373156
aF615.5743969373156
aF150.5
aF29.5
asa(dp1051
g601
g611
sg603
(lp1052
F1975.0
aF169.33809351921082
aI0
aI2808
aF833.0
aF2475.8919692096533
aF500.8919692096533
aF4707.743310058353
aF2732.743310058353
aF2017.0
aF42.0
asa(dp1053
g601
g606
sg603
(lp1054
F1848.0
aF267.90663504600525
aI1
aI3410
aF1562.0
aF2930.6761949434585
aF1082.6761949434585
aF6802.480012281048
aF4954.480012281048
aF2385.0
aF537.0
asa(dp1055
g601
g606
sg603
(lp1056
F1427.0
aF168.02438521385193
aI0
aI2106
aF679.0
aF1946.7705075710546
aF519.7705075710546
aF4837.016138660908
aF3410.016138660908
aF1631.0
aF204.0
asa(dp1057
g601
g606
sg603
(lp1058
F2877.0
aF224.16652059555054
aI0
aI4278
aF1401.0
aF3953.2542243138305
aF1076.2542243138305
aF8758.90261988682
aF5881.90261988682
aF3121.0
aF244.0
asa(dp1059
g601
g606
sg603
(lp1060
F4038.0
aF266.59292674064636
aI0
aI6400
aF2362.0
aF5616.231930935173
aF1578.2319309351733
aF12244.675295557317
aF8206.675295557317
aF4442.5
aF404.5
asa(dp1061
g601
g606
sg603
(lp1062
F1039.0
aF156.71067690849304
aI0
aI1836
aF797.0
aF1686.563523368939
aF647.5635233689391
aF4832.727670378705
aF3793.7276703787047
aF1290.5
aF251.5
asa(dp1063
g601
g602
sg603
(lp1064
F14.0
aF14.485281229019165
aI0
aI30
aF16.0
aF17.999998372361915
aF3.9999983723619152
aF43.3279070188429
aF29.3279070188429
aF14.5
aF0.5
asa(dp1065
g601
g602
sg603
(lp1066
F19.0
aF16.485281229019165
aI0
aI36
aF17.0
aF23.999996481116796
aF4.999996481116796
aF56.65956417667982
aF37.65956417667982
aF19.5
aF0.5
asa(dp1067
g601
g606
sg603
(lp1068
F1686.0
aF206.99494767189026
aI0
aI2862
aF1176.0
aF2455.7447865002177
aF769.7447865002177
aF5437.747410412855
aF3751.747410412855
aF1968.5
aF282.5
asa(dp1069
g601
g602
sg603
(lp1070
F127.5
aF55.69848430156708
aI0
aI286
aF158.5
aF205.23847462472077
aF77.73847462472077
aF761.5711962810229
aF634.0711962810229
aF164.0
aF36.5
asa(dp1071
g601
g602
sg603
(lp1072
F3.0
aF7.656854152679443
aI0
aI12
aF9.0
aF4.499999593090479
aF1.4999995930904788
aF14.998119574667127
aF11.998119574667127
aF3.5
aF0.5
asa(dp1073
g601
g606
sg603
(lp1074
F4281.0
aF250.7939372062683
aI0
aI5698
aF1417.0
aF5461.446031880274
aF1180.446031880274
aF12166.809596328205
aF7885.809596328205
aF4394.0
aF113.0
asa(dp1075
g601
g602
sg603
(lp1076
F252.0
aF68.42640614509583
aI0
aI506
aF254.0
aF374.9999998239218
aF122.99999982392183
aF919.6615258136477
aF667.6615258136477
aF270.5
aF18.5
asa(dp1077
g601
g606
sg603
(lp1078
F1887.5
aF202.89444243907928
aI0
aI3696
aF1808.5
aF3053.7884598544915
aF1166.2884598544915
aF8775.157972447889
aF6887.657972447889
aF2224.5
aF337.0
asa(dp1079
g601
g602
sg603
(lp1080
F237.5
aF58.5269113779068
aI0
aI361
aF123.5
aF293.99995453345764
aF56.49995453345764
aF710.1859757912313
aF472.6859757912313
aF242.5
aF5.0
asa(dp1081
g601
g606
sg603
(lp1082
F1571.5
aF171.5807341337204
aI0
aI2451
aF879.5
aF2276.4162285561324
aF704.9162285561324
aF5332.664947391965
aF3761.164947391965
aF1702.0
aF130.5
asa(dp1083
g601
g606
sg603
(lp1084
F1818.5
aF235.0365778207779
aI1
aI3008
aF1189.5
aF2441.1172822406807
aF622.6172822406807
aF6662.20973220188
aF4843.70973220188
aF2173.5
aF355.0
asa(dp1085
g601
g606
sg603
(lp1086
F587.5
aF124.61017167568207
aI0
aI1634
aF1046.5
aF877.6990880961821
aF290.1990880961821
aF4842.72640818924
aF4255.22640818924
aF623.0
aF35.5
asa(dp1087
g601
g606
sg603
(lp1088
F8668.5
aF993.5016497373581
aI1
aI31616
aF22947.5
aF24247.81478952826
aF15579.31478952826
aF111234.403759322
aF102565.903759322
aF18740.0
aF10071.5
asa(dp1089
g601
g602
sg603
(lp1090
F1178.0
aF135.39696860313416
aI0
aI1620
aF442.0
aF1540.0
aF362.0
aF3619.879850287084
aF2441.879850287084
aF1236.0
aF58.0
asa(dp1091
g601
g602
sg603
(lp1092
I0
aF4.0
aI0
aI3
aI3
aF0.0
aF0.0
aF6.665830922074279
aF6.665830922074279
aF0.0
aF0.0
asa(dp1093
g601
g606
sg603
(lp1094
F869.5
aF138.46803629398346
aI0
aI1786
aF916.5
aF1351.9999388422584
aF482.4999388422584
aF4486.104337007842
aF3616.6043370078423
aF1055.0
aF185.5
asa(dp1095
g601
g611
sg603
(lp1096
F13487.5
aF606.6833273172379
aI1
aI22484
aF8996.5
aF18985.821536689997
aF5498.321536689997
aF55934.66115695021
aF42447.16115695021
aF14968.0
aF1480.5
asa(dp1097
g601
g606
sg603
(lp1098
F952.5
aF129.29646337032318
aI0
aI1476
aF523.5
aF1363.105670992285
aF410.605670992285
aF3179.8649532681247
aF2227.3649532681247
aF1041.0
aF88.5
asa(dp1099
g601
g602
sg603
(lp1100
F315.0
aF91.39696860313416
aI0
aI714
aF399.0
aF526.4615136306093
aF211.46151363060926
aF1921.425865951602
aF1606.425865951602
aF375.0
aF60.0
asa(dp1101
g601
g602
sg603
(lp1102
F7.5
aF17.899494767189026
aI0
aI40
aF32.5
aF14.399998908786301
aF6.899998908786301
aF108.31976646027127
aF100.81976646027127
aF10.0
aF2.5
asa(dp1103
g601
g606
sg603
(lp1104
F1634.5
aF163.09545290470123
aI0
aI2576
aF941.5
aF2197.0587133088557
aF562.5587133088557
aF5101.027666962379
aF3466.527666962379
aF1738.0
aF103.5
asa(dp1105
g601
g606
sg603
(lp1106
F1234.5
aF152.95331752300262
aI0
aI1998
aF763.5
aF1597.9998246368195
aF363.49982463681954
aF4946.354941904824
aF3711.854941904824
aF1355.5
aF121.0
asa(dp1107
g601
g606
sg603
(lp1108
F1582.0
aF172.85281229019165
aI0
aI2580
aF998.0
aF2299.247852477216
aF717.2478524772159
aF5882.595996314655
aF4300.595996314655
aF1759.5
aF177.5
asa(dp1109
g601
g602
sg603
(lp1110
F204.0
aF70.42640614509583
aI0
aI513
aF309.0
aF294.99996952785295
aF90.99996952785295
aF1416.4892843565538
aF1212.4892843565538
aF226.5
aF22.5
asa(dp1111
g601
g602
sg603
(lp1112
F17.0
aF15.656854152679443
aI0
aI30
aF13.0
aF20.0
aF3.0
aF48.32727338013026
aF31.327273380130258
aF17.5
aF0.5
asa(dp1113
g601
g602
sg603
(lp1114
F1568.5
aF312.14927566051483
aI1
aI3060
aF1491.5
aF2950.0
aF1381.5
aF6265.958114608245
aF4697.458114608245
aF2329.0
aF760.5
asa(dp1115
g601
g611
sg603
(lp1116
F2463.0
aF192.6518018245697
aI0
aI3551
aF1088.0
aF3182.399472129764
aF719.399472129764
aF8167.308985204328
aF5704.308985204328
aF2498.5
aF35.5
asa(dp1117
g601
g602
sg603
(lp1118
F140.0
aF51.455843687057495
aI0
aI252
aF112.0
aF216.517648066354
aF76.51764806635401
aF579.5003897700996
aF439.50038977009956
aF155.0
aF15.0
asa(dp1119
g601
g602
sg603
(lp1120
F94.0
aF44.62741661071777
aI0
aI204
aF110.0
aF134.99999134030804
aF40.99999134030804
aF541.5987451499133
aF447.59874514991327
aF104.5
aF10.5
asa(dp1121
g601
g602
sg603
(lp1122
F15.0
aF15.656854152679443
aI0
aI30
aF15.0
aF20.0
aF5.0
aF56.65956417667982
aF41.65956417667982
aF16.0
aF1.0
asa(dp1123
g601
g602
sg603
(lp1124
F197.0
aF64.76955199241638
aI0
aI432
aF235.0
aF289.03372461272556
aF92.03372461272556
aF1046.535635054701
aF849.5356350547011
aF229.5
aF32.5
asa(dp1125
g601
g602
sg603
(lp1126
F179.0
aF70.42640614509583
aI0
aI525
aF346.0
aF375.98256822171606
aF196.98256822171606
aF1246.3917935691013
aF1067.3917935691013
aF231.5
aF52.5
asa(dp1127
g601
g602
sg603
(lp1128
F126.5
aF62.870057225227356
aI0
aI345
aF218.5
aF302.0149523707805
aF175.51495237078052
aF843.6871279067236
aF717.1871279067236
aF186.0
aF59.5
asa(dp1129
g601
g602
sg603
(lp1130
F6.0
aF10.0
aI0
aI12
aF6.0
aF6.0
aF0.0
aF21.663950362321877
aF15.663950362321877
aF6.0
aF0.0
asa(dp1131
g601
g606
sg603
(lp1132
F1352.5
aF222.55129659175873
aI1
aI2211
aF858.5
aF2018.4138699930045
aF665.9138699930045
aF7259.090994334364
aF5906.590994334364
aF1714.5
aF362.0
asa(dp1133
g601
g606
sg603
(lp1134
F2031.0
aF238.2497808933258
aI0
aI4896
aF2865.0
aF3820.8236770629883
aF1789.8236770629883
aF11572.743780512646
aF9541.743780512646
aF2461.5
aF430.5
asa(dp1135
g601
g611
sg603
(lp1136
F2804.0
aF212.30865597724915
aI0
aI4209
aF1405.0
aF3910.4256832833344
aF1106.4256832833344
aF8135.166611309644
aF5331.166611309644
aF2982.5
aF178.5
asa(dp1137
g601
g606
sg603
(lp1138
F1716.5
aF172.1248904466629
aI0
aI2304
aF587.5
aF2152.6918602068763
aF436.1918602068763
aF6720.823786610528
aF5004.323786610528
aF1806.0
aF89.5
asa(dp1139
g601
g602
sg603
(lp1140
F3.0
aF7.656854152679443
aI0
aI12
aF9.0
aF4.499999593090479
aF1.4999995930904788
aF14.998119574667127
aF11.998119574667127
aF3.5
aF0.5
asa(dp1141
g601
g611
sg603
(lp1142
F7708.0
aF402.27416610717773
aI0
aI11500
aF3792.0
aF10920.780232612044
aF3212.7802326120436
aF21953.81681333972
aF14245.81681333972
aF8536.5
aF828.5
asa(dp1143
g601
g602
sg603
(lp1144
F2763.0
aF201.48022890090942
aI0
aI3835
aF1072.0
aF3608.0000046298373
aF845.0000046298373
aF6832.476931632526
aF4069.4769316325264
aF2833.5
aF70.5
asa(dp1145
g601
g606
sg603
(lp1146
F1339.0
aF165.68123936653137
aI0
aI2520
aF1181.0
aF1889.0136937832867
aF550.0136937832867
aF7287.419197413592
aF5948.419197413592
aF1470.5
aF131.5
asa(dp1147
g601
g602
sg603
(lp1148
F10.5
aF12.242640614509583
aI0
aI20
aF9.5
aF12.0
aF1.5
aF33.329154197452766
aF22.829154197452766
aF10.5
aF0.0
asa(dp1149
g601
g606
sg603
(lp1150
F1540.5
aF182.55129659175873
aI1
aI2352
aF811.5
aF2141.9998575616337
aF601.4998575616337
aF5171.443230670849
aF3630.9432306708486
aF1668.5
aF128.0
asa(dp1151
g601
g611
sg603
(lp1152
F2060.0
aF172.5096664428711
aI0
aI2862
aF802.0
aF2644.1998060100013
aF584.1998060100013
aF5082.696455733051
aF3022.696455733051
aF2099.5
aF39.5
asa(dp1153
g601
g602
sg603
(lp1154
F277.0
aF65.11269783973694
aI0
aI399
aF122.0
aF360.0
aF83.0
aF750.5605481530013
aF473.56054815300126
aF291.0
aF14.0
asa(dp1155
g601
g606
sg603
(lp1156
F1211.5
aF162.75230705738068
aI0
aI2400
aF1188.5
aF1657.7484932880034
aF446.2484932880034
aF4487.770940622309
aF3276.2709406223094
aF1420.0
aF208.5
asa(dp1157
g601
g602
sg603
(lp1158
F103.0
aF43.79898953437805
aI0
aI187
aF84.0
aF154.8800248016487
aF51.88002480164869
aF561.5962030890186
aF458.59620308901856
aF108.5
aF5.5
asa(dp1159
g601
g602
sg603
(lp1160
F95.0
aF42.97056245803833
aI0
aI170
aF75.0
aF135.88233113458045
aF40.882331134580454
aF486.60564327745453
aF391.60564327745453
aF106.5
aF11.5
asa(dp1161
g601
g606
sg603
(lp1162
F1923.5
aF178.61017167568207
aI0
aI2530
aF606.5
aF2400.1158901362796
aF476.61589013627963
aF5697.792011888861
aF3774.2920118888615
aF2051.5
aF128.0
asa(dp1163
g601
g602
sg603
(lp1164
F29.0
aF20.14213538169861
aI0
aI56
aF27.0
aF31.499998500332367
aF2.4999985003323673
aF88.3222654670468
aF59.322265467046805
aF29.0
aF0.0
asa(dp1165
g601
g602
sg603
(lp1166
F159.5
aF57.69848430156708
aI0
aI340
aF180.5
aF227.16921590709717
aF67.66921590709717
aF976.5443256284108
aF817.0443256284108
aF170.5
aF11.0
asa(dp1167
g601
g606
sg603
(lp1168
F974.5
aF155.4385987520218
aI0
aI2064
aF1089.5
aF1634.1308888114872
aF659.6308888114872
aF4981.042597627433
aF4006.5425976274328
aF1219.0
aF244.5
asa(dp1169
g601
g602
sg603
(lp1170
F16.5
aF15.899494767189026
aI0
aI35
aF18.5
aF19.99999661803099
aF3.499996618030991
aF66.6583182488442
aF50.158318248844196
aF16.5
aF0.0
asa(dp1171
g601
g611
sg603
(lp1172
F1626.0
aF153.1959581375122
aI0
aI2254
aF628.0
aF2039.3998469362705
aF413.3998469362705
aF4004.8346455461074
aF2378.8346455461074
aF1662.5
aF36.5
asa(dp1173
g601
g602
sg603
(lp1174
F22.0
aF22.14213538169861
aI0
aI64
aF42.0
aF29.999996612920313
aF7.999996612920313
aF123.31789022340563
aF101.31789022340563
aF25.5
aF3.5
asa(dp1175
g601
g606
sg603
(lp1176
F1401.0
aF177.68123936653137
aI0
aI2350
aF949.0
aF2217.1040635194367
aF816.1040635194367
aF4723.720566992836
aF3322.720566992836
aF1643.5
aF242.5
asa(dp1177
g601
g602
sg603
(lp1178
F447.0
aF98.22539567947388
aI0
aI1020
aF573.0
aF610.107649562924
aF163.10764956292405
aF2941.297866232941
aF2494.297866232941
aF473.5
aF26.5
asa(dp1179
g601
g602
sg603
(lp1180
F23.5
aF19.41421353816986
aI0
aI35
aF11.5
aF24.0
aF0.5
aF86.65580144928751
aF63.15580144928751
aF23.5
aF0.0
asa(dp1181
g601
g602
sg603
(lp1182
F2157.0
aF247.62236428260803
aI0
aI5494
aF3337.0
aF4196.400347021699
aF2039.4003470216994
aF13211.580419304766
aF11054.580419304766
aF2746.5
aF589.5
asa(dp1183
g601
g602
sg603
(lp1184
F40.5
aF27.55634891986847
aI0
aI90
aF49.5
aF56.16000408172613
aF15.660004081726129
aF194.97559498530052
aF154.47559498530052
aF44.5
aF4.0
asa(dp1185
g601
g602
sg603
(lp1186
F64.5
aF30.38477599620819
aI0
aI110
aF45.5
aF76.99999213819319
aF12.499992138193193
aF180.51938354011367
aF116.01938354011367
aF66.0
aF1.5
asa(dp1187
g601
g611
sg603
(lp1188
F680.0
aF104.42640614509583
aI0
aI960
aF280.0
aF899.0
aF219.0
aF2521.3507783009522
aF1841.3507783009522
aF705.0
aF25.0
asa(dp1189
g601
g606
sg603
(lp1190
F1092.0
aF182.16652059555054
aI0
aI2304
aF1212.0
aF1976.4995274846879
aF884.4995274846879
aF4127.741943934618
aF3035.7419439346177
aF1510.5
aF418.5
asa(dp1191
g601
g602
sg603
(lp1192
F120.5
aF46.041630148887634
aI0
aI221
aF100.5
aF165.4864907888441
aF44.986490788844094
aF561.5962030890186
aF441.09620308901856
aF127.5
aF7.0
asa(dp1193
g601
g606
sg603
(lp1194
F2070.0
aF186.5096664428711
aI0
aI3038
aF968.0
aF2637.919351506047
aF567.919351506047
aF6292.906501070194
aF4222.906501070194
aF2225.5
aF155.5
asa(dp1195
g601
g602
sg603
(lp1196
F863.5
aF175.09545290470123
aI0
aI1760
aF896.5
aF1580.9999592066742
aF717.4999592066742
aF3245.7648925851136
aF2382.2648925851136
aF1263.5
aF400.0
asa(dp1197
g601
g602
sg603
(lp1198
F2.0
aF6.828427076339722
aI0
aI9
aF7.0
aF3.9999991887362967
aF1.9999991887362967
aF13.33166105922738
aF11.33166105922738
aF2.0
aF0.0
asa(dp1199
g601
g606
sg603
(lp1200
F923.0
aF129.88224983215332
aI0
aI1521
aF598.0
aF1285.6923064321163
aF362.6923064321163
aF3008.5861355033308
aF2085.5861355033308
aF1023.0
aF100.0
asa(dp1201
g601
g606
sg603
(lp1202
F3459.0
aF360.3330411911011
aI0
aI8505
aF5046.0
aF5986.878045011777
aF2527.8780450117774
aF20690.74067234291
aF17231.74067234291
aF4834.5
aF1375.5
asa(dp1203
g601
g602
sg603
(lp1204
F944.0
aF164.02438521385193
aI0
aI1968
aF1024.0
aF1528.6923139356659
aF584.6923139356659
aF3871.9664130526176
aF2927.9664130526176
aF1204.0
aF260.0
asa.