(lp0
(dp1
S'classe'
p2
S'n'
p3
sS'caracteristicas'
p4
(lp5
F1267.5
aF287.3208485841751
aI00
aI3510
aF2242.5
aF2574.7571164465626
aF1307.2571164465626
aF6932.465053457361
aF5664.965053457361
aF2187.5
aF920.0
asa(dp6
g2
g3
sg4
(lp7
F1018.0
aF233.9655101299286
aI00
aI2444
aF1426.0
aF2243.999597480317
aF1225.9995974803169
aF5055.600766147107
aF4037.6007661471067
aF1699.0
aF681.0
asa(dp8
g2
g3
sg4
(lp9
F1011.5
aF183.23758828639984
aI00
aI2146
aF1134.5
aF2022.7156114879763
aF1011.2156114879763
aF5515.001424855322
aF4503.501424855322
aF1505.0
aF493.5
asa(dp10
g2
g3
sg4
(lp11
F1018.0
aF233.9655101299286
aI00
aI2444
aF1426.0
aF2243.999597480317
aF1225.9995974803169
aF5055.600766147107
aF4037.6007661471067
aF1699.0
aF681.0
asa(dp12
g2
g3
sg4
(lp13
F842.5
aF197.722869515419
aI00
aI2268
aF1425.5
aF1840.8002431128698
aF998.3002431128698
aF5562.636168380676
aF4720.136168380676
aF1294.5
aF452.0
asa(dp14
S'classe'
p15
S'n'
p16
sS'caracteristicas'
p17
(lp18
F1128.0
aF145.88224983215332
aI00
aI1680
aF552.0
aF1503.2964839598862
aF375.29648395988625
aF5067.698415749423
aF3939.6984157494226
aF1211.5
aF83.5
asa(dp19
g15
g16
sg17
(lp20
F998.5
aF144.95331752300262
aI00
aI1722
aF723.5
aF1343.9998353113187
aF345.49983531131875
aF2983.0677454453507
aF1984.5677454453507
aF1153.5
aF155.0
asa(dp21
S'classe'
p22
S'o'
p23
sS'caracteristicas'
p24
(lp25
F43.0
aF27.313708305358887
aI00
aI80
aF37.0
aF62.19230621002498
aF19.19230621002498
aF161.64640288556504
aF118.64640288556504
aF47.5
aF4.5
asa(dp26
g22
g23
sg24
(lp27
I0
aF2.0
aI00
aI2
aI2
aF0.0
aF0.0
aF6.283185307179586
aF6.283185307179586
aF0.0
aF0.0
asa(dp28
g22
S'n'
p29
sg24
(lp30
F1034.0
aF254.1076455116272
aI00
aI2444
aF1410.0
aF1920.4217833012808
aF886.4217833012808
aF5415.987536750775
aF4381.987536750775
aF1728.5
aF694.5
asa(dp31
g22
g29
sg24
(lp32
F172.5
aF51.69848430156708
aI00
aI288
aF115.5
aF227.99999287024184
aF55.49999287024184
aF563.2628428634092
aF390.7628428634092
aF179.0
aF6.5
asa(dp33
g22
g23
sg24
(lp34
F602.0
aF95.25483322143555
aI00
aI858
aF256.0
aF782.6575097424793
aF180.6575097424793
aF1763.4782278027149
aF1161.4782278027149
aF623.0
aF21.0
asa(dp35
g22
g29
sg24
(lp36
F1379.0
aF188.6518018245697
aI01
aI2300
aF921.0
aF1897.4999693588761
aF518.4999693588761
aF4332.7903871791295
aF2953.7903871791295
aF1529.5
aF150.5
asa(dp37
g22
S'l'
p38
sg24
(lp39
F15506.0
aF1326.9646337032318
aI01
aI49599
aF34093.0
aF42674.5760130398
aF27168.576013039798
aF147049.90614738993
aF131543.90614738993
aF30189.0
aF14683.0
asa(dp40
g22
g23
sg24
(lp41
F19.0
aF16.485281229019165
aI00
aI36
aF17.0
aF24.49999621112147
aF5.49999621112147
aF52.076805589884565
aF33.076805589884565
aF19.5
aF0.5
asa(dp42
g22
g23
sg24
(lp43
F47.5
aF30.727921843528748
aI00
aI96
aF48.5
aF61.599993620122405
aF14.099993620122405
aF261.63390876367527
aF214.13390876367527
aF51.0
aF3.5
asa(dp44
g22
g29
sg24
(lp45
F2524.0
aF245.27921843528748
aI01
aI3763
aF1239.0
aF3618.6710335166426
aF1094.6710335166426
aF8394.744111077402
aF5870.744111077402
aF2899.5
aF375.5
asa(dp46
g22
g29
sg24
(lp47
F2099.5
aF216.06601536273956
aI00
aI3510
aF1410.5
aF3010.5003629832936
aF911.0003629832936
aF8520.209647557425
aF6420.709647557425
aF2451.5
aF352.0
asa(dp48
g22
g23
sg24
(lp49
F485.5
aF120.26702582836151
aI00
aI1295
aF809.5
aF917.9998603450949
aF432.49986034509493
aF2624.0381880674263
aF2138.5381880674263
aF642.0
aF156.5
asa(dp50
g22
g29
sg24
(lp51
F1692.5
aF169.09545290470123
aI00
aI2632
aF939.5
aF2370.4153852929594
aF677.9153852929594
aF5460.982425495034
aF3768.4824254950336
aF1839.5
aF147.0
asa(dp52
g22
g38
sg24
(lp53
F3507.5
aF226.06601536273956
aI00
aI4692
aF1184.5
aF4478.275807374157
aF970.775807374157
aF9547.136522929692
aF6039.636522929692
aF3565.0
aF57.5
asa(dp54
g22
g23
sg24
(lp55
F19.0
aF16.485281229019165
aI00
aI36
aF17.0
aF23.999996481116796
aF4.999996481116796
aF56.65956417667982
aF37.65956417667982
aF19.5
aF0.5
asa(dp56
g22
g29
sg24
(lp57
F1535.5
aF227.23758828639984
aI01
aI2600
aF1064.5
aF2499.0
aF963.5
aF5384.073245197345
aF3848.5732451973454
aF1924.5
aF389.0
asa(dp58
g22
g23
sg24
(lp59
F10.5
aF13.071067690849304
aI00
aI24
aF13.5
aF14.999999317984475
aF4.499999317984475
aF41.66144712038661
aF31.16144712038661
aF11.0
aF0.5
asa(dp60
g22
g23
sg24
(lp61
F337.5
aF99.69848430156708
aI00
aI528
aF190.5
aF473.0
aF135.5
aF3082.946990122717
aF2745.446990122717
aF389.0
aF51.5
asa(dp62
g22
g29
sg24
(lp63
F1596.0
aF263.76449966430664
aI01
aI2900
aF1304.0
aF2631.5999500942416
aF1035.5999500942416
aF5821.413040238792
aF4225.413040238792
aF2142.0
aF546.0
asa(dp64
g22
g23
sg24
(lp65
F173.5
aF54.041630148887634
aI00
aI273
aF99.5
aF235.84003845189727
aF62.34003845189727
aF668.2496131679651
aF494.7496131679651
aF186.0
aF12.5
asa(dp66
g22
g23
sg24
(lp67
F6.0
aF9.656854152679443
aI00
aI15
aF9.0
aF7.999998377472593
aF1.9999983774725933
aF26.663323688297115
aF20.663323688297115
aF6.0
aF0.0
asa(dp68
g22
g23
sg24
(lp69
F8.5
aF12.242640614509583
aI00
aI20
aF11.5
aF12.0
aF3.5
aF35.41222987659607
aF26.912229876596072
aF9.0
aF0.5
asa(dp70
g22
g23
sg24
(lp71
F299.0
aF73.11269783973694
aI00
aI435
aF136.0
aF392.0
aF93.0
aF1333.1662368479913
aF1034.1662368479913
aF318.5
aF19.5
asa(dp72
g22
g23
sg24
(lp73
F7932.5
aF593.2274836301804
aI00
aI15049
aF7116.5
aF14746.155855357181
aF6813.655855357181
aF37496.84153570503
aF29564.341535705033
aF11433.5
aF3501.0
asa(dp74
g22
g23
sg24
(lp75
F399.5
aF99.49747383594513
aI00
aI754
aF354.5
aF700.0
aF300.5
aF1643.8944791404995
aF1244.3944791404995
aF510.5
aF111.0
asa(dp76
g22
g29
sg24
(lp77
F772.0
aF112.22539567947388
aI00
aI1248
aF476.0
aF1074.9998780676833
aF302.9998780676833
aF2573.011080393288
aF1801.011080393288
aF824.5
aF52.5
asa(dp78
g22
g29
sg24
(lp79
F1373.5
aF160.75230705738068
aI00
aI2530
aF1156.5
aF1957.839826053998
aF584.339826053998
aF5562.636168380676
aF4189.136168380676
aF1558.0
aF184.5
asa(dp80
g22
g23
sg24
(lp81
F4.0
aF23.313708305358887
aI00
aI55
aF51.0
aF13.999998797793637
aF9.999998797793637
aF193.30909352052103
aF189.30909352052103
aF9.5
aF5.5
asa(dp82
g22
g23
sg24
(lp83
F154.0
aF59.94112491607666
aI00
aI374
aF220.0
aF213.29994060540412
aF59.29994060540412
aF1041.536139435441
aF887.5361394354411
aF168.5
aF14.5
asa(dp84
g22
g29
sg24
(lp85
F1110.5
aF144.61017167568207
aI00
aI1681
aF570.5
aF1533.0710630936373
aF422.57106309363735
aF3345.134313037112
aF2234.634313037112
aF1254.5
aF144.0
asa(dp86
g22
g38
sg24
(lp87
F1868.0
aF164.85281229019165
aI00
aI2600
aF732.0
aF2418.199743502657
aF550.1997435026569
aF4429.545062932813
aF2561.5450629328134
aF1907.5
aF39.5
asa(dp88
g22
g23
sg24
(lp89
F87.5
aF47.55634891986847
aI00
aI180
aF92.5
aF112.65385595159387
aF25.15385595159387
aF661.5837156745782
aF574.0837156745782
aF100.5
aF13.0
asa(dp90
g22
g29
sg24
(lp91
F2338.5
aF284.29141104221344
aI01
aI5254
aF2915.5
aF3550.9993961259315
aF1212.4993961259315
aF9892.015534668843
aF7553.5155346688425
aF2972.0
aF633.5
asa(dp92
g22
g38
sg24
(lp93
F5197.5
aF274.69343197345734
aI00
aI6640
aF1442.5
aF6478.0
aF1280.5
aF13386.656789735363
aF8189.156789735363
aF5295.0
aF97.5
asa(dp94
g22
g23
sg24
(lp95
F1297.5
aF154.46803629398346
aI00
aI1989
aF691.5
aF1846.8275814728258
aF549.3275814728258
aF4799.3985356508065
aF3501.8985356508065
aF1433.5
aF136.0
asa(dp96
g22
g29
sg24
(lp97
F1664.0
aF248.59292674064636
aI01
aI2862
aF1198.0
aF2565.09634501487
aF901.0963450148702
aF5475.119706489212
aF3811.119706489212
aF2080.5
aF416.5
asa(dp98
g22
g23
sg24
(lp99
F6049.0
aF371.50461411476135
aI00
aI10032
aF3983.0
aF8588.936273408239
aF2539.936273408239
aF21285.667596200332
aF15236.667596200332
aF6855.5
aF806.5
asa(dp100
g22
g23
sg24
(lp101
F3.5
aF8.242640614509583
aI00
aI12
aF8.5
aF5.999999749690346
aF2.499999749690346
aF16.66457956221105
aF13.164579562211049
aF4.0
aF0.5
asa(dp102
g22
g29
sg24
(lp103
F1187.0
aF223.48022890090942
aI01
aI2115
aF928.0
aF2024.0
aF837.0
aF4259.371797061756
aF3072.3717970617563
aF1580.0
aF393.0
asa(dp104
g22
g23
sg24
(lp105
F20.0
aF18.485281229019165
aI00
aI42
aF22.0
aF27.99999655724241
aF7.999996557242412
aF70.03274032056918
aF50.032740320569175
aF22.5
aF2.5
asa(dp106
g22
g23
sg24
(lp107
I0
aF0.0
aI00
aI1
aI1
aF0.0
aF0.0
aF6.283185307179586
aF6.283185307179586
aF0.0
aF0.0
asa(dp108
g22
g38
sg24
(lp109
F2527.5
aF189.5807341337204
aI00
aI3420
aF892.5
aF3203.6100851517403
aF676.1100851517403
aF6183.88073996654
aF3656.38073996654
aF2568.5
aF41.0
asa(dp110
g22
g23
sg24
(lp111
F147.0
aF54.62741661071777
aI00
aI264
aF117.0
aF197.85367118757858
aF50.853671187578584
aF794.9004566013244
aF647.9004566013244
aF164.5
aF17.5
asa(dp112
g22
g29
sg24
(lp113
F1622.0
aF190.6518018245697
aI01
aI2726
aF1104.0
aF2175.578841084498
aF553.578841084498
aF5549.30511709912
aF3927.3051170991203
aF1784.0
aF162.0
asa(dp114
g22
g23
sg24
(lp115
F134.0
aF54.62741661071777
aI00
aI264
aF130.0
aF177.9366133843614
aF43.93661338436141
aF869.8908975139644
aF735.8908975139644
aF147.0
aF13.0
asa(dp116
g22
g29
sg24
(lp117
F1567.0
aF217.82337474822998
aI01
aI2400
aF833.0
aF2278.6142465411103
aF711.6142465411103
aF5815.937481073077
aF4248.937481073077
aF1844.0
aF277.0
asa(dp118
g22
g38
sg24
(lp119
F7518.5
aF407.34523379802704
aI00
aI13000
aF5481.5
aF11364.159192177118
aF3845.659192177118
aF30137.888106389793
aF22619.388106389793
aF8642.5
aF1124.0
asa(dp120
g22
g29
sg24
(lp121
F1736.5
aF237.86500489711761
aI01
aI2880
aF1143.5
aF2704.4231883376488
aF967.9231883376488
aF6067.849370877364
aF4331.349370877364
aF2138.0
aF401.5
asa(dp122
g22
g23
sg24
(lp123
F2324.0
aF364.1320307254791
aI00
aI8722
aF6398.0
aF4805.920332794194
aF2481.920332794194
aF24560.2546019848
aF22236.2546019848
aF3515.0
aF1191.0
asa.