(ibase
Base
p0
(dp1
S'imagens'
p2
(lp3
(ibase
Imagem
p4
(dp5
S'indice'
p6
I1
sS'foco'
p7
NsS'obstruida'
p8
NsS'lamina'
p9
NsS'patch'
p10
Nsba(ibase
Imagem
p11
(dp12
g6
I2
sg7
Nsg8
Nsg9
Nsg10
Nsba(ibase
Imagem
p13
(dp14
g6
I3
sg7
Nsg8
Nsg9
Nsg10
Nsba(ibase
Imagem
p15
(dp16
g6
I4
sg7
Nsg8
Nsg9
Nsg10
Nsba(ibase
Imagem
p17
(dp18
g6
I5
sg7
Nsg8
Nsg9
(ibase
Lamina
p19
(dp20
S'centro'
p21
(I1723
I1972
tp22
sS'raio'
p23
I1287
sbsg10
Nsba(ibase
Imagem
p24
(dp25
g6
I6
sg7
Nsg8
Nsg9
Nsg10
Nsba(ibase
Imagem
p26
(dp27
g6
I7
sg7
Nsg8
Nsg9
Nsg10
Nsba(ibase
Imagem
p28
(dp29
g6
I8
sg7
Nsg8
Nsg9
(ibase
Lamina
p30
(dp31
g21
(I1724
I1972
tp32
sg23
I1289
sbsg10
Nsba(ibase
Imagem
p33
(dp34
g6
I9
sg7
Nsg8
Nsg9
Nsg10
Nsba(ibase
Imagem
p35
(dp36
g6
I10
sg7
Nsg8
Nsg9
Nsg10
Nsba(ibase
Imagem
p37
(dp38
g6
I11
sg7
Nsg8
Nsg9
Nsg10
Nsba(ibase
Imagem
p39
(dp40
g6
I12
sg7
Nsg8
Nsg9
Nsg10
Nsba(ibase
Imagem
p41
(dp42
g6
I13
sg7
Nsg8
Nsg9
(ibase
Lamina
p43
(dp44
g21
(I1727
I1974
tp45
sg23
I1289
sbsg10
Nsba(ibase
Imagem
p46
(dp47
g6
I14
sg7
Nsg8
Nsg9
Nsg10
Nsba(ibase
Imagem
p48
(dp49
g6
I15
sg7
Nsg8
Nsg9
Nsg10
Nsba(ibase
Imagem
p50
(dp51
g6
I16
sg7
Nsg8
Nsg9
Nsg10
Nsba(ibase
Imagem
p52
(dp53
g6
I17
sg7
Nsg8
Nsg9
Nsg10
Nsba(ibase
Imagem
p54
(dp55
g6
I18
sg7
Nsg8
Nsg9
Nsg10
Nsba(ibase
Imagem
p56
(dp57
g6
I19
sg7
Nsg8
Nsg9
Nsg10
Nsba(ibase
Imagem
p58
(dp59
g6
I20
sg7
Nsg8
Nsg9
Nsg10
Nsba(ibase
Imagem
p60
(dp61
g6
I21
sg7
Nsg8
Nsg9
Nsg10
Nsba(ibase
Imagem
p62
(dp63
g6
I22
sg7
Nsg8
Nsg9
Nsg10
Nsba(ibase
Imagem
p64
(dp65
g6
I23
sg7
Nsg8
Nsg9
Nsg10
Nsba(ibase
Imagem
p66
(dp67
g6
I24
sg7
Nsg8
Nsg9
Nsg10
Nsba(ibase
Imagem
p68
(dp69
g6
I25
sg7
Nsg8
Nsg9
Nsg10
Nsba(ibase
Imagem
p70
(dp71
g6
I26
sg7
Nsg8
Nsg9
(ibase
Lamina
p72
(dp73
g21
(I1728
I1974
tp74
sg23
I1288
sbsg10
Nsba(ibase
Imagem
p75
(dp76
g6
I27
sg7
Nsg8
Nsg9
Nsg10
Nsba(ibase
Imagem
p77
(dp78
g6
I28
sg7
Nsg8
Nsg9
Nsg10
Nsba(ibase
Imagem
p79
(dp80
g6
I29
sg7
Nsg8
Nsg9
Nsg10
Nsba(ibase
Imagem
p81
(dp82
g6
I30
sg7
Nsg8
Nsg9
Nsg10
Nsba(ibase
Imagem
p83
(dp84
g6
I31
sg7
Nsg8
Nsg9
Nsg10
Nsba(ibase
Imagem
p85
(dp86
g6
I32
sg7
Nsg8
Nsg9
Nsg10
Nsba(ibase
Imagem
p87
(dp88
g6
I33
sg7
Nsg8
Nsg9
Nsg10
Nsba(ibase
Imagem
p89
(dp90
g6
I34
sg7
Nsg8
Nsg9
Nsg10
Nsba(ibase
Imagem
p91
(dp92
g6
I35
sg7
Nsg8
Nsg9
Nsg10
Nsba(ibase
Imagem
p93
(dp94
g6
I36
sg7
Nsg8
Nsg9
(ibase
Lamina
p95
(dp96
g21
(I1729
I1975
tp97
sg23
I1289
sbsg10
Nsba(ibase
Imagem
p98
(dp99
g6
I37
sg7
Nsg8
Nsg9
Nsg10
Nsba(ibase
Imagem
p100
(dp101
g6
I38
sg7
Nsg8
Nsg9
Nsg10
Nsba(ibase
Imagem
p102
(dp103
g6
I39
sg7
Nsg8
Nsg9
Nsg10
Nsba(ibase
Imagem
p104
(dp105
g6
I40
sg7
Nsg8
Nsg9
Nsg10
Nsba(ibase
Imagem
p106
(dp107
g6
I41
sg7
Nsg8
Nsg9
Nsg10
Nsba(ibase
Imagem
p108
(dp109
g6
I42
sg7
Nsg8
Nsg9
Nsg10
Nsba(ibase
Imagem
p110
(dp111
g6
I43
sg7
Nsg8
Nsg9
Nsg10
Nsba(ibase
Imagem
p112
(dp113
g6
I44
sg7
Nsg8
Nsg9
Nsg10
Nsba(ibase
Imagem
p114
(dp115
g6
I45
sg7
Nsg8
Nsg9
Nsg10
Nsba(ibase
Imagem
p116
(dp117
g6
I46
sg7
Nsg8
Nsg9
Nsg10
Nsba(ibase
Imagem
p118
(dp119
g6
I47
sg7
Nsg8
Nsg9
(ibase
Lamina
p120
(dp121
g21
(I1708
I1936
tp122
sg23
I1215
sbsg10
Nsba(ibase
Imagem
p123
(dp124
g6
I48
sg7
Nsg8
Nsg9
Nsg10
Nsba(ibase
Imagem
p125
(dp126
g6
I49
sg7
Nsg8
Nsg9
Nsg10
Nsba(ibase
Imagem
p127
(dp128
g6
I50
sg7
Nsg8
Nsg9
Nsg10
Nsba(ibase
Imagem
p129
(dp130
g6
I51
sg7
Nsg8
Nsg9
Nsg10
Nsba(ibase
Imagem
p131
(dp132
g6
I52
sg7
Nsg8
Nsg9
Nsg10
Nsba(ibase
Imagem
p133
(dp134
g6
I53
sg7
Nsg8
Nsg9
(ibase
Lamina
p135
(dp136
g21
(I1706
I1937
tp137
sg23
I1215
sbsg10
Nsba(ibase
Imagem
p138
(dp139
g6
I54
sg7
Nsg8
Nsg9
Nsg10
Nsba(ibase
Imagem
p140
(dp141
g6
I55
sg7
Nsg8
Nsg9
Nsg10
Nsba(ibase
Imagem
p142
(dp143
g6
I56
sg7
Nsg8
Nsg9
Nsg10
Nsba(ibase
Imagem
p144
(dp145
g6
I57
sg7
Nsg8
Nsg9
Nsg10
Nsba(ibase
Imagem
p146
(dp147
g6
I58
sg7
Nsg8
Nsg9
Nsg10
Nsba(ibase
Imagem
p148
(dp149
g6
I59
sg7
Nsg8
Nsg9
Nsg10
Nsba(ibase
Imagem
p150
(dp151
g6
I60
sg7
Nsg8
Nsg9
Nsg10
Nsba(ibase
Imagem
p152
(dp153
g6
I61
sg7
Nsg8
Nsg9
Nsg10
Nsba(ibase
Imagem
p154
(dp155
g6
I62
sg7
Nsg8
Nsg9
Nsg10
Nsba(ibase
Imagem
p156
(dp157
g6
I63
sg7
Nsg8
Nsg9
Nsg10
Nsba(ibase
Imagem
p158
(dp159
g6
I64
sg7
Nsg8
Nsg9
Nsg10
Nsba(ibase
Imagem
p160
(dp161
g6
I65
sg7
Nsg8
Nsg9
Nsg10
Nsba(ibase
Imagem
p162
(dp163
g6
I66
sg7
Nsg8
Nsg9
Nsg10
Nsba(ibase
Imagem
p164
(dp165
g6
I67
sg7
Nsg8
Nsg9
Nsg10
Nsba(ibase
Imagem
p166
(dp167
g6
I68
sg7
Nsg8
Nsg9
Nsg10
Nsba(ibase
Imagem
p168
(dp169
g6
I69
sg7
Nsg8
Nsg9
Nsg10
Nsba(ibase
Imagem
p170
(dp171
g6
I70
sg7
Nsg8
Nsg9
Nsg10
Nsba(ibase
Imagem
p172
(dp173
g6
I71
sg7
Nsg8
Nsg9
Nsg10
Nsba(ibase
Imagem
p174
(dp175
g6
I72
sg7
Nsg8
Nsg9
Nsg10
Nsba(ibase
Imagem
p176
(dp177
g6
I73
sg7
Nsg8
Nsg9
Nsg10
Nsba(ibase
Imagem
p178
(dp179
g6
I74
sg7
Nsg8
Nsg9
Nsg10
Nsba(ibase
Imagem
p180
(dp181
g6
I75
sg7
Nsg8
Nsg9
Nsg10
Nsba(ibase
Imagem
p182
(dp183
g6
I76
sg7
Nsg8
Nsg9
Nsg10
Nsba(ibase
Imagem
p184
(dp185
g6
I77
sg7
Nsg8
Nsg9
(ibase
Lamina
p186
(dp187
g21
(I1719
I1920
tp188
sg23
I1215
sbsg10
Nsba(ibase
Imagem
p189
(dp190
g6
I78
sg7
Nsg8
Nsg9
Nsg10
Nsba(ibase
Imagem
p191
(dp192
g6
I79
sg7
Nsg8
Nsg9
Nsg10
Nsba(ibase
Imagem
p193
(dp194
g6
I80
sg7
Nsg8
Nsg9
Nsg10
Nsba(ibase
Imagem
p195
(dp196
g6
I81
sg7
Nsg8
Nsg9
(ibase
Lamina
p197
(dp198
g21
(I1717
I1919
tp199
sg23
I1216
sbsg10
Nsba(ibase
Imagem
p200
(dp201
g6
I82
sg7
Nsg8
Nsg9
(ibase
Lamina
p202
(dp203
g21
(I1716
I1921
tp204
sg23
I1232
sbsg10
Nsba(ibase
Imagem
p205
(dp206
g6
I83
sg7
Nsg8
Nsg9
Nsg10
Nsba(ibase
Imagem
p207
(dp208
g6
I84
sg7
Nsg8
Nsg9
Nsg10
Nsba(ibase
Imagem
p209
(dp210
g6
I85
sg7
Nsg8
Nsg9
Nsg10
Nsba(ibase
Imagem
p211
(dp212
g6
I86
sg7
Nsg8
Nsg9
(ibase
Lamina
p213
(dp214
g21
(I1714
I1920
tp215
sg23
I1215
sbsg10
Nsba(ibase
Imagem
p216
(dp217
g6
I87
sg7
Nsg8
Nsg9
Nsg10
Nsba(ibase
Imagem
p218
(dp219
g6
I88
sg7
Nsg8
Nsg9
Nsg10
Nsba(ibase
Imagem
p220
(dp221
g6
I89
sg7
Nsg8
Nsg9
Nsg10
Nsba(ibase
Imagem
p222
(dp223
g6
I90
sg7
Nsg8
Nsg9
(ibase
Lamina
p224
(dp225
g21
(I1718
I1919
tp226
sg23
I1215
sbsg10
Nsba(ibase
Imagem
p227
(dp228
g6
I91
sg7
Nsg8
Nsg9
Nsg10
Nsba(ibase
Imagem
p229
(dp230
g6
I92
sg7
Nsg8
Nsg9
Nsg10
Nsba(ibase
Imagem
p231
(dp232
g6
I93
sg7
Nsg8
Nsg9
(ibase
Lamina
p233
(dp234
g21
(I1717
I1918
tp235
sg23
I1214
sbsg10
Nsba(ibase
Imagem
p236
(dp237
g6
I94
sg7
Nsg8
Nsg9
Nsg10
Nsba(ibase
Imagem
p238
(dp239
g6
I95
sg7
Nsg8
Nsg9
Nsg10
Nsba(ibase
Imagem
p240
(dp241
g6
I96
sg7
Nsg8
Nsg9
Nsg10
Nsba(ibase
Imagem
p242
(dp243
g6
I97
sg7
Nsg8
Nsg9
Nsg10
Nsba(ibase
Imagem
p244
(dp245
g6
I98
sg7
Nsg8
Nsg9
Nsg10
Nsba(ibase
Imagem
p246
(dp247
g6
I99
sg7
Nsg8
Nsg9
Nsg10
Nsba(ibase
Imagem
p248
(dp249
g6
I100
sg7
Nsg8
Nsg9
Nsg10
Nsba(ibase
Imagem
p250
(dp251
g6
I101
sg7
Nsg8
Nsg9
Nsg10
Nsba(ibase
Imagem
p252
(dp253
g6
I102
sg7
Nsg8
Nsg9
Nsg10
Nsba(ibase
Imagem
p254
(dp255
g6
I103
sg7
Nsg8
Nsg9
Nsg10
Nsba(ibase
Imagem
p256
(dp257
g6
I104
sg7
Nsg8
Nsg9
Nsg10
Nsba(ibase
Imagem
p258
(dp259
g6
I105
sg7
Nsg8
Nsg9
Nsg10
Nsba(ibase
Imagem
p260
(dp261
g6
I106
sg7
Nsg8
Nsg9
Nsg10
Nsba(ibase
Imagem
p262
(dp263
g6
I107
sg7
Nsg8
Nsg9
Nsg10
Nsba(ibase
Imagem
p264
(dp265
g6
I108
sg7
Nsg8
Nsg9
Nsg10
Nsba(ibase
Imagem
p266
(dp267
g6
I109
sg7
Nsg8
Nsg9
Nsg10
Nsba(ibase
Imagem
p268
(dp269
g6
I110
sg7
Nsg8
Nsg9
Nsg10
Nsba(ibase
Imagem
p270
(dp271
g6
I111
sg7
Nsg8
Nsg9
(ibase
Lamina
p272
(dp273
g21
(I1720
I1922
tp274
sg23
I1216
sbsg10
Nsba(ibase
Imagem
p275
(dp276
g6
I112
sg7
Nsg8
Nsg9
Nsg10
Nsba(ibase
Imagem
p277
(dp278
g6
I113
sg7
Nsg8
Nsg9
Nsg10
Nsba(ibase
Imagem
p279
(dp280
g6
I114
sg7
Nsg8
Nsg9
Nsg10
Nsba(ibase
Imagem
p281
(dp282
g6
I115
sg7
Nsg8
Nsg9
(ibase
Lamina
p283
(dp284
g21
(I1718
I1919
tp285
sg23
I1214
sbsg10
Nsba(ibase
Imagem
p286
(dp287
g6
I116
sg7
Nsg8
Nsg9
Nsg10
Nsba(ibase
Imagem
p288
(dp289
g6
I117
sg7
Nsg8
Nsg9
Nsg10
Nsba(ibase
Imagem
p290
(dp291
g6
I118
sg7
Nsg8
Nsg9
Nsg10
Nsba(ibase
Imagem
p292
(dp293
g6
I119
sg7
Nsg8
Nsg9
Nsg10
Nsba(ibase
Imagem
p294
(dp295
g6
I120
sg7
Nsg8
Nsg9
Nsg10
Nsba(ibase
Imagem
p296
(dp297
g6
I121
sg7
Nsg8
Nsg9
Nsg10
Nsba(ibase
Imagem
p298
(dp299
g6
I122
sg7
Nsg8
Nsg9
Nsg10
Nsba(ibase
Imagem
p300
(dp301
g6
I123
sg7
Nsg8
Nsg9
Nsg10
Nsba(ibase
Imagem
p302
(dp303
g6
I124
sg7
Nsg8
Nsg9
Nsg10
Nsba(ibase
Imagem
p304
(dp305
g6
I125
sg7
Nsg8
Nsg9
Nsg10
Nsba(ibase
Imagem
p306
(dp307
g6
I126
sg7
Nsg8
Nsg9
Nsg10
Nsba(ibase
Imagem
p308
(dp309
g6
I127
sg7
Nsg8
Nsg9
Nsg10
Nsba(ibase
Imagem
p310
(dp311
g6
I128
sg7
Nsg8
Nsg9
(ibase
Lamina
p312
(dp313
g21
(I1718
I1919
tp314
sg23
I1215
sbsg10
Nsba(ibase
Imagem
p315
(dp316
g6
I129
sg7
Nsg8
Nsg9
Nsg10
Nsbasb.